	.cpu cortex-m4
	.eabi_attribute 27, 1
	.eabi_attribute 28, 1
	.eabi_attribute 20, 1
	.eabi_attribute 21, 1
	.eabi_attribute 23, 3
	.eabi_attribute 24, 1
	.eabi_attribute 25, 1
	.eabi_attribute 26, 1
	.eabi_attribute 30, 6
	.eabi_attribute 34, 1
	.eabi_attribute 18, 4
	.file	"nrf_drv_gpiote.c"
	.text
.Ltext0:
	.section	.text.nrf_gpiote_task_set,"ax",%progbits
	.align	1
	.syntax unified
	.thumb
	.thumb_func
	.fpu fpv4-sp-d16
	.type	nrf_gpiote_task_set, %function
nrf_gpiote_task_set:
.LFB150:
	.file 1 "../../../nRF5_SDK_14.2.0/components/drivers_nrf/hal/nrf_gpiote.h"
	.loc 1 308 1
	@ args = 0, pretend = 0, frame = 8
	@ frame_needed = 0, uses_anonymous_args = 0
	@ link register save eliminated.
	sub	sp, sp, #8
.LCFI0:
	mov	r3, r0
	strb	r3, [sp, #7]
	.loc 1 309 45
	ldrb	r3, [sp, #7]	@ zero_extendqisi2
	add	r3, r3, #1073741824
	add	r3, r3, #24576
	.loc 1 309 6
	mov	r2, r3
	.loc 1 309 53
	movs	r3, #1
	str	r3, [r2]
	.loc 1 310 1
	nop
	add	sp, sp, #8
.LCFI1:
	@ sp needed
	bx	lr
.LFE150:
	.size	nrf_gpiote_task_set, .-nrf_gpiote_task_set
	.section	.text.nrf_gpiote_task_addr_get,"ax",%progbits
	.align	1
	.syntax unified
	.thumb
	.thumb_func
	.fpu fpv4-sp-d16
	.type	nrf_gpiote_task_addr_get, %function
nrf_gpiote_task_addr_get:
.LFB151:
	.loc 1 313 1
	@ args = 0, pretend = 0, frame = 8
	@ frame_needed = 0, uses_anonymous_args = 0
	@ link register save eliminated.
	sub	sp, sp, #8
.LCFI2:
	mov	r3, r0
	strb	r3, [sp, #7]
	.loc 1 314 34
	ldrb	r3, [sp, #7]	@ zero_extendqisi2
	add	r3, r3, #1073741824
	add	r3, r3, #24576
	.loc 1 315 1
	mov	r0, r3
	add	sp, sp, #8
.LCFI3:
	@ sp needed
	bx	lr
.LFE151:
	.size	nrf_gpiote_task_addr_get, .-nrf_gpiote_task_addr_get
	.section	.text.nrf_gpiote_event_is_set,"ax",%progbits
	.align	1
	.syntax unified
	.thumb
	.thumb_func
	.fpu fpv4-sp-d16
	.type	nrf_gpiote_event_is_set, %function
nrf_gpiote_event_is_set:
.LFB152:
	.loc 1 318 1
	@ args = 0, pretend = 0, frame = 8
	@ frame_needed = 0, uses_anonymous_args = 0
	push	{lr}
.LCFI4:
	sub	sp, sp, #12
.LCFI5:
	mov	r3, r0
	strh	r3, [sp, #6]	@ movhi
	.loc 1 319 26
	ldrh	r3, [sp, #6]
	mov	r0, r3
	bl	nrf_gpiote_event_addr_get
	mov	r3, r0
	.loc 1 319 13
	ldr	r3, [r3]
	.loc 1 319 76
	cmp	r3, #1
	ite	eq
	moveq	r3, #1
	movne	r3, #0
	uxtb	r3, r3
	.loc 1 320 1
	mov	r0, r3
	add	sp, sp, #12
.LCFI6:
	@ sp needed
	ldr	pc, [sp], #4
.LFE152:
	.size	nrf_gpiote_event_is_set, .-nrf_gpiote_event_is_set
	.section	.text.nrf_gpiote_event_clear,"ax",%progbits
	.align	1
	.syntax unified
	.thumb
	.thumb_func
	.fpu fpv4-sp-d16
	.type	nrf_gpiote_event_clear, %function
nrf_gpiote_event_clear:
.LFB153:
	.loc 1 323 1
	@ args = 0, pretend = 0, frame = 16
	@ frame_needed = 0, uses_anonymous_args = 0
	push	{lr}
.LCFI7:
	sub	sp, sp, #20
.LCFI8:
	mov	r3, r0
	strh	r3, [sp, #6]	@ movhi
	.loc 1 324 18
	ldrh	r3, [sp, #6]
	mov	r0, r3
	bl	nrf_gpiote_event_addr_get
	mov	r3, r0
	.loc 1 324 6
	mov	r2, r3
	.loc 1 324 51
	movs	r3, #0
	str	r3, [r2]
	.loc 1 326 54
	ldrh	r3, [sp, #6]
	mov	r0, r3
	bl	nrf_gpiote_event_addr_get
	mov	r3, r0
	.loc 1 326 31
	ldr	r3, [r3]
	.loc 1 326 23
	str	r3, [sp, #12]
	.loc 1 327 5
	ldr	r3, [sp, #12]
	.loc 1 329 1
	nop
	add	sp, sp, #20
.LCFI9:
	@ sp needed
	ldr	pc, [sp], #4
.LFE153:
	.size	nrf_gpiote_event_clear, .-nrf_gpiote_event_clear
	.section	.text.nrf_gpiote_event_addr_get,"ax",%progbits
	.align	1
	.syntax unified
	.thumb
	.thumb_func
	.fpu fpv4-sp-d16
	.type	nrf_gpiote_event_addr_get, %function
nrf_gpiote_event_addr_get:
.LFB154:
	.loc 1 332 1
	@ args = 0, pretend = 0, frame = 8
	@ frame_needed = 0, uses_anonymous_args = 0
	@ link register save eliminated.
	sub	sp, sp, #8
.LCFI10:
	mov	r3, r0
	strh	r3, [sp, #6]	@ movhi
	.loc 1 333 34
	ldrh	r3, [sp, #6]
	add	r3, r3, #1073741824
	add	r3, r3, #24576
	.loc 1 334 1
	mov	r0, r3
	add	sp, sp, #8
.LCFI11:
	@ sp needed
	bx	lr
.LFE154:
	.size	nrf_gpiote_event_addr_get, .-nrf_gpiote_event_addr_get
	.section	.text.nrf_gpiote_int_enable,"ax",%progbits
	.align	1
	.syntax unified
	.thumb
	.thumb_func
	.fpu fpv4-sp-d16
	.type	nrf_gpiote_int_enable, %function
nrf_gpiote_int_enable:
.LFB155:
	.loc 1 337 1
	@ args = 0, pretend = 0, frame = 8
	@ frame_needed = 0, uses_anonymous_args = 0
	@ link register save eliminated.
	sub	sp, sp, #8
.LCFI12:
	str	r0, [sp, #4]
	.loc 1 338 15
	ldr	r2, .L10
	.loc 1 338 26
	ldr	r3, [sp, #4]
	str	r3, [r2, #772]
	.loc 1 339 1
	nop
	add	sp, sp, #8
.LCFI13:
	@ sp needed
	bx	lr
.L11:
	.align	2
.L10:
	.word	1073766400
.LFE155:
	.size	nrf_gpiote_int_enable, .-nrf_gpiote_int_enable
	.section	.text.nrf_gpiote_int_disable,"ax",%progbits
	.align	1
	.syntax unified
	.thumb
	.thumb_func
	.fpu fpv4-sp-d16
	.type	nrf_gpiote_int_disable, %function
nrf_gpiote_int_disable:
.LFB156:
	.loc 1 342 1
	@ args = 0, pretend = 0, frame = 8
	@ frame_needed = 0, uses_anonymous_args = 0
	@ link register save eliminated.
	sub	sp, sp, #8
.LCFI14:
	str	r0, [sp, #4]
	.loc 1 343 15
	ldr	r2, .L13
	.loc 1 343 26
	ldr	r3, [sp, #4]
	str	r3, [r2, #776]
	.loc 1 344 1
	nop
	add	sp, sp, #8
.LCFI15:
	@ sp needed
	bx	lr
.L14:
	.align	2
.L13:
	.word	1073766400
.LFE156:
	.size	nrf_gpiote_int_disable, .-nrf_gpiote_int_disable
	.section	.text.nrf_gpiote_int_is_enabled,"ax",%progbits
	.align	1
	.syntax unified
	.thumb
	.thumb_func
	.fpu fpv4-sp-d16
	.type	nrf_gpiote_int_is_enabled, %function
nrf_gpiote_int_is_enabled:
.LFB157:
	.loc 1 347 1
	@ args = 0, pretend = 0, frame = 8
	@ frame_needed = 0, uses_anonymous_args = 0
	@ link register save eliminated.
	sub	sp, sp, #8
.LCFI16:
	str	r0, [sp, #4]
	.loc 1 348 23
	ldr	r3, .L17
	ldr	r2, [r3, #772]
	.loc 1 348 34
	ldr	r3, [sp, #4]
	ands	r3, r3, r2
	.loc 1 349 1
	mov	r0, r3
	add	sp, sp, #8
.LCFI17:
	@ sp needed
	bx	lr
.L18:
	.align	2
.L17:
	.word	1073766400
.LFE157:
	.size	nrf_gpiote_int_is_enabled, .-nrf_gpiote_int_is_enabled
	.section	.text.nrf_gpiote_event_enable,"ax",%progbits
	.align	1
	.syntax unified
	.thumb
	.thumb_func
	.fpu fpv4-sp-d16
	.type	nrf_gpiote_event_enable, %function
nrf_gpiote_event_enable:
.LFB158:
	.loc 1 352 1
	@ args = 0, pretend = 0, frame = 8
	@ frame_needed = 0, uses_anonymous_args = 0
	@ link register save eliminated.
	sub	sp, sp, #8
.LCFI18:
	str	r0, [sp, #4]
	.loc 1 353 28
	ldr	r2, .L20
	ldr	r3, [sp, #4]
	add	r3, r3, #324
	ldr	r3, [r2, r3, lsl #2]
	ldr	r1, .L20
	orr	r2, r3, #1
	ldr	r3, [sp, #4]
	add	r3, r3, #324
	str	r2, [r1, r3, lsl #2]
	.loc 1 354 1
	nop
	add	sp, sp, #8
.LCFI19:
	@ sp needed
	bx	lr
.L21:
	.align	2
.L20:
	.word	1073766400
.LFE158:
	.size	nrf_gpiote_event_enable, .-nrf_gpiote_event_enable
	.section	.text.nrf_gpiote_event_disable,"ax",%progbits
	.align	1
	.syntax unified
	.thumb
	.thumb_func
	.fpu fpv4-sp-d16
	.type	nrf_gpiote_event_disable, %function
nrf_gpiote_event_disable:
.LFB159:
	.loc 1 357 1
	@ args = 0, pretend = 0, frame = 8
	@ frame_needed = 0, uses_anonymous_args = 0
	@ link register save eliminated.
	sub	sp, sp, #8
.LCFI20:
	str	r0, [sp, #4]
	.loc 1 358 28
	ldr	r2, .L23
	ldr	r3, [sp, #4]
	add	r3, r3, #324
	ldr	r3, [r2, r3, lsl #2]
	ldr	r1, .L23
	bic	r2, r3, #1
	ldr	r3, [sp, #4]
	add	r3, r3, #324
	str	r2, [r1, r3, lsl #2]
	.loc 1 359 1
	nop
	add	sp, sp, #8
.LCFI21:
	@ sp needed
	bx	lr
.L24:
	.align	2
.L23:
	.word	1073766400
.LFE159:
	.size	nrf_gpiote_event_disable, .-nrf_gpiote_event_disable
	.section	.text.nrf_gpiote_event_configure,"ax",%progbits
	.align	1
	.syntax unified
	.thumb
	.thumb_func
	.fpu fpv4-sp-d16
	.type	nrf_gpiote_event_configure, %function
nrf_gpiote_event_configure:
.LFB160:
	.loc 1 362 1
	@ args = 0, pretend = 0, frame = 16
	@ frame_needed = 0, uses_anonymous_args = 0
	@ link register save eliminated.
	sub	sp, sp, #16
.LCFI22:
	str	r0, [sp, #12]
	str	r1, [sp, #8]
	mov	r3, r2
	strb	r3, [sp, #7]
	.loc 1 363 27
	ldr	r2, .L26
	ldr	r3, [sp, #12]
	add	r3, r3, #324
	ldr	r3, [r2, r3, lsl #2]
	ldr	r1, .L26
	bic	r3, r3, #203776
	bic	r3, r3, #768
	ldr	r2, [sp, #12]
	add	r2, r2, #324
	str	r3, [r1, r2, lsl #2]
	.loc 1 364 27
	ldr	r2, .L26
	ldr	r3, [sp, #12]
	add	r3, r3, #324
	ldr	r2, [r2, r3, lsl #2]
	.loc 1 364 36
	ldr	r3, [sp, #8]
	lsls	r3, r3, #8
	.loc 1 364 63
	and	r1, r3, #7936
	.loc 1 365 42
	ldrb	r3, [sp, #7]	@ zero_extendqisi2
	lsls	r3, r3, #16
	.loc 1 365 73
	and	r3, r3, #196608
	.loc 1 364 93
	orrs	r3, r3, r1
	.loc 1 364 27
	ldr	r1, .L26
	orrs	r2, r2, r3
	ldr	r3, [sp, #12]
	add	r3, r3, #324
	str	r2, [r1, r3, lsl #2]
	.loc 1 366 1
	nop
	add	sp, sp, #16
.LCFI23:
	@ sp needed
	bx	lr
.L27:
	.align	2
.L26:
	.word	1073766400
.LFE160:
	.size	nrf_gpiote_event_configure, .-nrf_gpiote_event_configure
	.section	.text.nrf_gpiote_event_pin_get,"ax",%progbits
	.align	1
	.syntax unified
	.thumb
	.thumb_func
	.fpu fpv4-sp-d16
	.type	nrf_gpiote_event_pin_get, %function
nrf_gpiote_event_pin_get:
.LFB161:
	.loc 1 369 1
	@ args = 0, pretend = 0, frame = 8
	@ frame_needed = 0, uses_anonymous_args = 0
	@ link register save eliminated.
	sub	sp, sp, #8
.LCFI24:
	str	r0, [sp, #4]
	.loc 1 370 24
	ldr	r2, .L30
	.loc 1 370 32
	ldr	r3, [sp, #4]
	add	r3, r3, #324
	ldr	r3, [r2, r3, lsl #2]
	.loc 1 370 68
	lsrs	r3, r3, #8
	and	r3, r3, #31
	.loc 1 371 1
	mov	r0, r3
	add	sp, sp, #8
.LCFI25:
	@ sp needed
	bx	lr
.L31:
	.align	2
.L30:
	.word	1073766400
.LFE161:
	.size	nrf_gpiote_event_pin_get, .-nrf_gpiote_event_pin_get
	.section	.text.nrf_gpiote_event_polarity_get,"ax",%progbits
	.align	1
	.syntax unified
	.thumb
	.thumb_func
	.fpu fpv4-sp-d16
	.type	nrf_gpiote_event_polarity_get, %function
nrf_gpiote_event_polarity_get:
.LFB162:
	.loc 1 374 1
	@ args = 0, pretend = 0, frame = 8
	@ frame_needed = 0, uses_anonymous_args = 0
	@ link register save eliminated.
	sub	sp, sp, #8
.LCFI26:
	str	r0, [sp, #4]
	.loc 1 375 47
	ldr	r2, .L34
	.loc 1 375 55
	ldr	r3, [sp, #4]
	add	r3, r3, #324
	ldr	r3, [r2, r3, lsl #2]
	.loc 1 375 91
	lsrs	r3, r3, #16
	and	r3, r3, #3
	.loc 1 375 12
	uxtb	r3, r3
	.loc 1 376 1
	mov	r0, r3
	add	sp, sp, #8
.LCFI27:
	@ sp needed
	bx	lr
.L35:
	.align	2
.L34:
	.word	1073766400
.LFE162:
	.size	nrf_gpiote_event_polarity_get, .-nrf_gpiote_event_polarity_get
	.section	.text.nrf_gpiote_task_enable,"ax",%progbits
	.align	1
	.syntax unified
	.thumb
	.thumb_func
	.fpu fpv4-sp-d16
	.type	nrf_gpiote_task_enable, %function
nrf_gpiote_task_enable:
.LFB163:
	.loc 1 379 1
	@ args = 0, pretend = 0, frame = 16
	@ frame_needed = 0, uses_anonymous_args = 0
	@ link register save eliminated.
	sub	sp, sp, #16
.LCFI28:
	str	r0, [sp, #4]
	.loc 1 380 39
	ldr	r2, .L37
	.loc 1 380 47
	ldr	r3, [sp, #4]
	add	r3, r3, #324
	ldr	r3, [r2, r3, lsl #2]
	.loc 1 380 14
	orr	r3, r3, #3
	str	r3, [sp, #12]
	.loc 1 391 15
	ldr	r1, .L37
	.loc 1 391 29
	ldr	r3, [sp, #4]
	add	r3, r3, #324
	ldr	r2, [sp, #12]
	str	r2, [r1, r3, lsl #2]
	.loc 1 392 1
	nop
	add	sp, sp, #16
.LCFI29:
	@ sp needed
	bx	lr
.L38:
	.align	2
.L37:
	.word	1073766400
.LFE163:
	.size	nrf_gpiote_task_enable, .-nrf_gpiote_task_enable
	.section	.text.nrf_gpiote_task_disable,"ax",%progbits
	.align	1
	.syntax unified
	.thumb
	.thumb_func
	.fpu fpv4-sp-d16
	.type	nrf_gpiote_task_disable, %function
nrf_gpiote_task_disable:
.LFB164:
	.loc 1 395 1
	@ args = 0, pretend = 0, frame = 8
	@ frame_needed = 0, uses_anonymous_args = 0
	@ link register save eliminated.
	sub	sp, sp, #8
.LCFI30:
	str	r0, [sp, #4]
	.loc 1 396 29
	ldr	r2, .L40
	ldr	r3, [sp, #4]
	add	r3, r3, #324
	ldr	r3, [r2, r3, lsl #2]
	ldr	r1, .L40
	bic	r2, r3, #3
	ldr	r3, [sp, #4]
	add	r3, r3, #324
	str	r2, [r1, r3, lsl #2]
	.loc 1 397 1
	nop
	add	sp, sp, #8
.LCFI31:
	@ sp needed
	bx	lr
.L41:
	.align	2
.L40:
	.word	1073766400
.LFE164:
	.size	nrf_gpiote_task_disable, .-nrf_gpiote_task_disable
	.section	.text.nrf_gpiote_task_configure,"ax",%progbits
	.align	1
	.syntax unified
	.thumb
	.thumb_func
	.fpu fpv4-sp-d16
	.type	nrf_gpiote_task_configure, %function
nrf_gpiote_task_configure:
.LFB165:
	.loc 1 402 1
	@ args = 0, pretend = 0, frame = 16
	@ frame_needed = 0, uses_anonymous_args = 0
	@ link register save eliminated.
	sub	sp, sp, #16
.LCFI32:
	str	r0, [sp, #12]
	str	r1, [sp, #8]
	mov	r1, r2
	mov	r2, r3
	mov	r3, r1
	strb	r3, [sp, #7]
	mov	r3, r2
	strb	r3, [sp, #6]
	.loc 1 403 27
	ldr	r2, .L43
	ldr	r3, [sp, #12]
	add	r3, r3, #324
	ldr	r3, [r2, r3, lsl #2]
	ldr	r1, .L43
	bic	r3, r3, #1245184
	bic	r3, r3, #7936
	ldr	r2, [sp, #12]
	add	r2, r2, #324
	str	r3, [r1, r2, lsl #2]
	.loc 1 407 27
	ldr	r2, .L43
	ldr	r3, [sp, #12]
	add	r3, r3, #324
	ldr	r2, [r2, r3, lsl #2]
	.loc 1 407 36
	ldr	r3, [sp, #8]
	lsls	r3, r3, #8
	.loc 1 407 63
	and	r1, r3, #7936
	.loc 1 408 41
	ldrb	r3, [sp, #7]	@ zero_extendqisi2
	lsls	r3, r3, #16
	.loc 1 408 72
	and	r3, r3, #196608
	.loc 1 407 93
	orrs	r1, r1, r3
	.loc 1 409 41
	ldrb	r3, [sp, #6]	@ zero_extendqisi2
	lsls	r3, r3, #20
	.loc 1 409 71
	and	r3, r3, #1048576
	.loc 1 408 102
	orrs	r3, r3, r1
	.loc 1 407 27
	ldr	r1, .L43
	orrs	r2, r2, r3
	ldr	r3, [sp, #12]
	add	r3, r3, #324
	str	r2, [r1, r3, lsl #2]
	.loc 1 410 1
	nop
	add	sp, sp, #16
.LCFI33:
	@ sp needed
	bx	lr
.L44:
	.align	2
.L43:
	.word	1073766400
.LFE165:
	.size	nrf_gpiote_task_configure, .-nrf_gpiote_task_configure
	.section	.text.nrf_gpiote_task_force,"ax",%progbits
	.align	1
	.syntax unified
	.thumb
	.thumb_func
	.fpu fpv4-sp-d16
	.type	nrf_gpiote_task_force, %function
nrf_gpiote_task_force:
.LFB166:
	.loc 1 413 1
	@ args = 0, pretend = 0, frame = 8
	@ frame_needed = 0, uses_anonymous_args = 0
	@ link register save eliminated.
	sub	sp, sp, #8
.LCFI34:
	str	r0, [sp, #4]
	mov	r3, r1
	strb	r3, [sp, #3]
	.loc 1 414 42
	ldr	r2, .L46
	.loc 1 414 50
	ldr	r3, [sp, #4]
	add	r3, r3, #324
	ldr	r3, [r2, r3, lsl #2]
	.loc 1 414 56
	bic	r2, r3, #1048576
	.loc 1 415 44
	ldrb	r3, [sp, #3]	@ zero_extendqisi2
	lsls	r3, r3, #20
	.loc 1 415 74
	and	r3, r3, #1048576
	.loc 1 414 15
	ldr	r1, .L46
	.loc 1 415 31
	orrs	r2, r2, r3
	.loc 1 414 29
	ldr	r3, [sp, #4]
	add	r3, r3, #324
	str	r2, [r1, r3, lsl #2]
	.loc 1 416 1
	nop
	add	sp, sp, #8
.LCFI35:
	@ sp needed
	bx	lr
.L47:
	.align	2
.L46:
	.word	1073766400
.LFE166:
	.size	nrf_gpiote_task_force, .-nrf_gpiote_task_force
	.section	.text.nrf_gpiote_te_default,"ax",%progbits
	.align	1
	.syntax unified
	.thumb
	.thumb_func
	.fpu fpv4-sp-d16
	.type	nrf_gpiote_te_default, %function
nrf_gpiote_te_default:
.LFB167:
	.loc 1 419 1
	@ args = 0, pretend = 0, frame = 8
	@ frame_needed = 0, uses_anonymous_args = 0
	@ link register save eliminated.
	sub	sp, sp, #8
.LCFI36:
	str	r0, [sp, #4]
	.loc 1 420 15
	ldr	r2, .L49
	.loc 1 420 29
	ldr	r3, [sp, #4]
	add	r3, r3, #324
	movs	r1, #0
	str	r1, [r2, r3, lsl #2]
	.loc 1 421 1
	nop
	add	sp, sp, #8
.LCFI37:
	@ sp needed
	bx	lr
.L50:
	.align	2
.L49:
	.word	1073766400
.LFE167:
	.size	nrf_gpiote_te_default, .-nrf_gpiote_te_default
	.section	.text.nrf_gpio_pin_port_decode,"ax",%progbits
	.align	1
	.syntax unified
	.thumb
	.thumb_func
	.fpu fpv4-sp-d16
	.type	nrf_gpio_pin_port_decode, %function
nrf_gpio_pin_port_decode:
.LFB168:
	.file 2 "../../../nRF5_SDK_14.2.0/components/drivers_nrf/hal/nrf_gpio.h"
	.loc 2 463 1
	@ args = 0, pretend = 0, frame = 8
	@ frame_needed = 0, uses_anonymous_args = 0
	@ link register save eliminated.
	sub	sp, sp, #8
.LCFI38:
	str	r0, [sp, #4]
	.loc 2 467 12
	mov	r3, #1342177280
	.loc 2 479 1
	mov	r0, r3
	add	sp, sp, #8
.LCFI39:
	@ sp needed
	bx	lr
.LFE168:
	.size	nrf_gpio_pin_port_decode, .-nrf_gpio_pin_port_decode
	.section	.text.nrf_gpio_cfg,"ax",%progbits
	.align	1
	.syntax unified
	.thumb
	.thumb_func
	.fpu fpv4-sp-d16
	.type	nrf_gpio_cfg, %function
nrf_gpio_cfg:
.LFB171:
	.loc 2 511 1
	@ args = 8, pretend = 0, frame = 16
	@ frame_needed = 0, uses_anonymous_args = 0
	push	{lr}
.LCFI40:
	sub	sp, sp, #20
.LCFI41:
	str	r0, [sp, #4]
	mov	r0, r1
	mov	r1, r2
	mov	r2, r3
	mov	r3, r0
	strb	r3, [sp, #3]
	mov	r3, r1
	strb	r3, [sp, #2]
	mov	r3, r2
	strb	r3, [sp, #1]
	.loc 2 512 27
	add	r3, sp, #4
	mov	r0, r3
	bl	nrf_gpio_pin_port_decode
	str	r0, [sp, #12]
	.loc 2 514 47
	ldrb	r2, [sp, #3]	@ zero_extendqisi2
	.loc 2 515 35
	ldrb	r3, [sp, #2]	@ zero_extendqisi2
	.loc 2 515 51
	lsls	r3, r3, #1
	.loc 2 515 32
	orrs	r2, r2, r3
	.loc 2 516 35
	ldrb	r3, [sp, #1]	@ zero_extendqisi2
	.loc 2 516 50
	lsls	r3, r3, #2
	.loc 2 516 32
	orrs	r2, r2, r3
	.loc 2 517 35
	ldrb	r3, [sp, #24]	@ zero_extendqisi2
	.loc 2 517 51
	lsls	r3, r3, #8
	.loc 2 517 32
	orr	r1, r2, r3
	.loc 2 518 35
	ldrb	r3, [sp, #28]	@ zero_extendqisi2
	.loc 2 518 51
	lsls	r3, r3, #16
	.loc 2 514 17
	ldr	r2, [sp, #4]
	.loc 2 518 32
	orrs	r1, r1, r3
	.loc 2 514 30
	ldr	r3, [sp, #12]
	add	r2, r2, #448
	str	r1, [r3, r2, lsl #2]
	.loc 2 519 1
	nop
	add	sp, sp, #20
.LCFI42:
	@ sp needed
	ldr	pc, [sp], #4
.LFE171:
	.size	nrf_gpio_cfg, .-nrf_gpio_cfg
	.section	.text.nrf_gpio_cfg_output,"ax",%progbits
	.align	1
	.syntax unified
	.thumb
	.thumb_func
	.fpu fpv4-sp-d16
	.type	nrf_gpio_cfg_output, %function
nrf_gpio_cfg_output:
.LFB172:
	.loc 2 523 1
	@ args = 0, pretend = 0, frame = 8
	@ frame_needed = 0, uses_anonymous_args = 0
	push	{lr}
.LCFI43:
	sub	sp, sp, #20
.LCFI44:
	str	r0, [sp, #12]
	.loc 2 524 5
	movs	r3, #0
	str	r3, [sp, #4]
	movs	r3, #0
	str	r3, [sp]
	movs	r3, #0
	movs	r2, #1
	movs	r1, #1
	ldr	r0, [sp, #12]
	bl	nrf_gpio_cfg
	.loc 2 531 1
	nop
	add	sp, sp, #20
.LCFI45:
	@ sp needed
	ldr	pc, [sp], #4
.LFE172:
	.size	nrf_gpio_cfg_output, .-nrf_gpio_cfg_output
	.section	.text.nrf_gpio_cfg_input,"ax",%progbits
	.align	1
	.syntax unified
	.thumb
	.thumb_func
	.fpu fpv4-sp-d16
	.type	nrf_gpio_cfg_input, %function
nrf_gpio_cfg_input:
.LFB173:
	.loc 2 535 1
	@ args = 0, pretend = 0, frame = 8
	@ frame_needed = 0, uses_anonymous_args = 0
	push	{lr}
.LCFI46:
	sub	sp, sp, #20
.LCFI47:
	str	r0, [sp, #12]
	mov	r3, r1
	strb	r3, [sp, #11]
	.loc 2 536 5
	ldrb	r3, [sp, #11]	@ zero_extendqisi2
	movs	r2, #0
	str	r2, [sp, #4]
	movs	r2, #0
	str	r2, [sp]
	movs	r2, #0
	movs	r1, #0
	ldr	r0, [sp, #12]
	bl	nrf_gpio_cfg
	.loc 2 543 1
	nop
	add	sp, sp, #20
.LCFI48:
	@ sp needed
	ldr	pc, [sp], #4
.LFE173:
	.size	nrf_gpio_cfg_input, .-nrf_gpio_cfg_input
	.section	.text.nrf_gpio_cfg_default,"ax",%progbits
	.align	1
	.syntax unified
	.thumb
	.thumb_func
	.fpu fpv4-sp-d16
	.type	nrf_gpio_cfg_default, %function
nrf_gpio_cfg_default:
.LFB174:
	.loc 2 547 1
	@ args = 0, pretend = 0, frame = 8
	@ frame_needed = 0, uses_anonymous_args = 0
	push	{lr}
.LCFI49:
	sub	sp, sp, #20
.LCFI50:
	str	r0, [sp, #12]
	.loc 2 548 5
	movs	r3, #0
	str	r3, [sp, #4]
	movs	r3, #0
	str	r3, [sp]
	movs	r3, #0
	movs	r2, #1
	movs	r1, #0
	ldr	r0, [sp, #12]
	bl	nrf_gpio_cfg
	.loc 2 555 1
	nop
	add	sp, sp, #20
.LCFI51:
	@ sp needed
	ldr	pc, [sp], #4
.LFE174:
	.size	nrf_gpio_cfg_default, .-nrf_gpio_cfg_default
	.section	.text.nrf_gpio_cfg_watcher,"ax",%progbits
	.align	1
	.syntax unified
	.thumb
	.thumb_func
	.fpu fpv4-sp-d16
	.type	nrf_gpio_cfg_watcher, %function
nrf_gpio_cfg_watcher:
.LFB175:
	.loc 2 559 1
	@ args = 0, pretend = 0, frame = 16
	@ frame_needed = 0, uses_anonymous_args = 0
	push	{lr}
.LCFI52:
	sub	sp, sp, #20
.LCFI53:
	str	r0, [sp, #4]
	.loc 2 560 27
	add	r3, sp, #4
	mov	r0, r3
	bl	nrf_gpio_pin_port_decode
	str	r0, [sp, #12]
	.loc 2 562 45
	ldr	r2, [sp, #4]
	.loc 2 562 32
	ldr	r3, [sp, #12]
	add	r2, r2, #448
	ldr	r3, [r3, r2, lsl #2]
	.loc 2 562 14
	bic	r3, r3, #2
	str	r3, [sp, #8]
	.loc 2 564 17
	ldr	r2, [sp, #4]
	.loc 2 564 30
	ldr	r3, [sp, #12]
	add	r2, r2, #448
	ldr	r1, [sp, #8]
	str	r1, [r3, r2, lsl #2]
	.loc 2 565 1
	nop
	add	sp, sp, #20
.LCFI54:
	@ sp needed
	ldr	pc, [sp], #4
.LFE175:
	.size	nrf_gpio_cfg_watcher, .-nrf_gpio_cfg_watcher
	.section	.text.nrf_gpio_cfg_sense_set,"ax",%progbits
	.align	1
	.syntax unified
	.thumb
	.thumb_func
	.fpu fpv4-sp-d16
	.type	nrf_gpio_cfg_sense_set, %function
nrf_gpio_cfg_sense_set:
.LFB178:
	.loc 2 593 1
	@ args = 0, pretend = 0, frame = 16
	@ frame_needed = 0, uses_anonymous_args = 0
	push	{lr}
.LCFI55:
	sub	sp, sp, #20
.LCFI56:
	str	r0, [sp, #4]
	mov	r3, r1
	strb	r3, [sp, #3]
	.loc 2 594 27
	add	r3, sp, #4
	mov	r0, r3
	bl	nrf_gpio_pin_port_decode
	str	r0, [sp, #12]
	.loc 2 597 30
	ldr	r2, [sp, #4]
	ldr	r3, [sp, #12]
	add	r2, r2, #448
	ldr	r3, [r3, r2, lsl #2]
	ldr	r2, [sp, #4]
	bic	r1, r3, #196608
	ldr	r3, [sp, #12]
	add	r2, r2, #448
	str	r1, [r3, r2, lsl #2]
	.loc 2 598 30
	ldr	r2, [sp, #4]
	ldr	r3, [sp, #12]
	add	r2, r2, #448
	ldr	r3, [r3, r2, lsl #2]
	.loc 2 598 47
	ldrb	r2, [sp, #3]	@ zero_extendqisi2
	lsls	r2, r2, #16
	mov	r1, r2
	.loc 2 598 30
	ldr	r2, [sp, #4]
	orrs	r1, r1, r3
	ldr	r3, [sp, #12]
	add	r2, r2, #448
	str	r1, [r3, r2, lsl #2]
	.loc 2 599 1
	nop
	add	sp, sp, #20
.LCFI57:
	@ sp needed
	ldr	pc, [sp], #4
.LFE178:
	.size	nrf_gpio_cfg_sense_set, .-nrf_gpio_cfg_sense_set
	.section	.text.nrf_gpio_pin_set,"ax",%progbits
	.align	1
	.syntax unified
	.thumb
	.thumb_func
	.fpu fpv4-sp-d16
	.type	nrf_gpio_pin_set, %function
nrf_gpio_pin_set:
.LFB180:
	.loc 2 623 1
	@ args = 0, pretend = 0, frame = 16
	@ frame_needed = 0, uses_anonymous_args = 0
	push	{lr}
.LCFI58:
	sub	sp, sp, #20
.LCFI59:
	str	r0, [sp, #4]
	.loc 2 624 27
	add	r3, sp, #4
	mov	r0, r3
	bl	nrf_gpio_pin_port_decode
	str	r0, [sp, #12]
	.loc 2 626 5
	ldr	r3, [sp, #4]
	.loc 2 626 36
	movs	r2, #1
	lsl	r3, r2, r3
	.loc 2 626 5
	mov	r1, r3
	ldr	r0, [sp, #12]
	bl	nrf_gpio_port_out_set
	.loc 2 627 1
	nop
	add	sp, sp, #20
.LCFI60:
	@ sp needed
	ldr	pc, [sp], #4
.LFE180:
	.size	nrf_gpio_pin_set, .-nrf_gpio_pin_set
	.section	.text.nrf_gpio_pin_clear,"ax",%progbits
	.align	1
	.syntax unified
	.thumb
	.thumb_func
	.fpu fpv4-sp-d16
	.type	nrf_gpio_pin_clear, %function
nrf_gpio_pin_clear:
.LFB181:
	.loc 2 631 1
	@ args = 0, pretend = 0, frame = 16
	@ frame_needed = 0, uses_anonymous_args = 0
	push	{lr}
.LCFI61:
	sub	sp, sp, #20
.LCFI62:
	str	r0, [sp, #4]
	.loc 2 632 27
	add	r3, sp, #4
	mov	r0, r3
	bl	nrf_gpio_pin_port_decode
	str	r0, [sp, #12]
	.loc 2 634 5
	ldr	r3, [sp, #4]
	.loc 2 634 38
	movs	r2, #1
	lsl	r3, r2, r3
	.loc 2 634 5
	mov	r1, r3
	ldr	r0, [sp, #12]
	bl	nrf_gpio_port_out_clear
	.loc 2 635 1
	nop
	add	sp, sp, #20
.LCFI63:
	@ sp needed
	ldr	pc, [sp], #4
.LFE181:
	.size	nrf_gpio_pin_clear, .-nrf_gpio_pin_clear
	.section	.text.nrf_gpio_pin_toggle,"ax",%progbits
	.align	1
	.syntax unified
	.thumb
	.thumb_func
	.fpu fpv4-sp-d16
	.type	nrf_gpio_pin_toggle, %function
nrf_gpio_pin_toggle:
.LFB182:
	.loc 2 639 1
	@ args = 0, pretend = 0, frame = 16
	@ frame_needed = 0, uses_anonymous_args = 0
	push	{lr}
.LCFI64:
	sub	sp, sp, #20
.LCFI65:
	str	r0, [sp, #4]
	.loc 2 640 34
	add	r3, sp, #4
	mov	r0, r3
	bl	nrf_gpio_pin_port_decode
	str	r0, [sp, #12]
	.loc 2 641 21
	ldr	r3, [sp, #12]
	ldr	r3, [r3, #1284]
	str	r3, [sp, #8]
	.loc 2 643 20
	ldr	r3, [sp, #8]
	mvns	r2, r3
	.loc 2 643 39
	ldr	r3, [sp, #4]
	movs	r1, #1
	lsl	r3, r1, r3
	.loc 2 643 32
	ands	r2, r2, r3
	.loc 2 643 17
	ldr	r3, [sp, #12]
	str	r2, [r3, #1288]
	.loc 2 644 38
	ldr	r3, [sp, #4]
	movs	r2, #1
	lsls	r2, r2, r3
	.loc 2 644 31
	ldr	r3, [sp, #8]
	ands	r2, r2, r3
	.loc 2 644 17
	ldr	r3, [sp, #12]
	str	r2, [r3, #1292]
	.loc 2 645 1
	nop
	add	sp, sp, #20
.LCFI66:
	@ sp needed
	ldr	pc, [sp], #4
.LFE182:
	.size	nrf_gpio_pin_toggle, .-nrf_gpio_pin_toggle
	.section	.text.nrf_gpio_pin_read,"ax",%progbits
	.align	1
	.syntax unified
	.thumb
	.thumb_func
	.fpu fpv4-sp-d16
	.type	nrf_gpio_pin_read, %function
nrf_gpio_pin_read:
.LFB184:
	.loc 2 662 1
	@ args = 0, pretend = 0, frame = 16
	@ frame_needed = 0, uses_anonymous_args = 0
	push	{lr}
.LCFI67:
	sub	sp, sp, #20
.LCFI68:
	str	r0, [sp, #4]
	.loc 2 663 27
	add	r3, sp, #4
	mov	r0, r3
	bl	nrf_gpio_pin_port_decode
	str	r0, [sp, #12]
	.loc 2 665 14
	ldr	r0, [sp, #12]
	bl	nrf_gpio_port_in_read
	mov	r2, r0
	.loc 2 665 41
	ldr	r3, [sp, #4]
	lsr	r3, r2, r3
	.loc 2 665 56
	and	r3, r3, #1
	.loc 2 666 1
	mov	r0, r3
	add	sp, sp, #20
.LCFI69:
	@ sp needed
	ldr	pc, [sp], #4
.LFE184:
	.size	nrf_gpio_pin_read, .-nrf_gpio_pin_read
	.section	.text.nrf_gpio_pin_sense_get,"ax",%progbits
	.align	1
	.syntax unified
	.thumb
	.thumb_func
	.fpu fpv4-sp-d16
	.type	nrf_gpio_pin_sense_get, %function
nrf_gpio_pin_sense_get:
.LFB186:
	.loc 2 678 1
	@ args = 0, pretend = 0, frame = 16
	@ frame_needed = 0, uses_anonymous_args = 0
	push	{lr}
.LCFI70:
	sub	sp, sp, #20
.LCFI71:
	str	r0, [sp, #4]
	.loc 2 679 27
	add	r3, sp, #4
	mov	r0, r3
	bl	nrf_gpio_pin_port_decode
	str	r0, [sp, #12]
	.loc 2 681 48
	ldr	r2, [sp, #4]
	ldr	r3, [sp, #12]
	add	r2, r2, #448
	ldr	r3, [r3, r2, lsl #2]
	.loc 2 682 60
	lsrs	r3, r3, #16
	and	r3, r3, #3
	.loc 2 681 12
	uxtb	r3, r3
	.loc 2 683 1
	mov	r0, r3
	add	sp, sp, #20
.LCFI72:
	@ sp needed
	ldr	pc, [sp], #4
.LFE186:
	.size	nrf_gpio_pin_sense_get, .-nrf_gpio_pin_sense_get
	.section	.text.nrf_gpio_port_in_read,"ax",%progbits
	.align	1
	.syntax unified
	.thumb
	.thumb_func
	.fpu fpv4-sp-d16
	.type	nrf_gpio_port_in_read, %function
nrf_gpio_port_in_read:
.LFB191:
	.loc 2 711 1
	@ args = 0, pretend = 0, frame = 8
	@ frame_needed = 0, uses_anonymous_args = 0
	@ link register save eliminated.
	sub	sp, sp, #8
.LCFI73:
	str	r0, [sp, #4]
	.loc 2 712 17
	ldr	r3, [sp, #4]
	ldr	r3, [r3, #1296]
	.loc 2 713 1
	mov	r0, r3
	add	sp, sp, #8
.LCFI74:
	@ sp needed
	bx	lr
.LFE191:
	.size	nrf_gpio_port_in_read, .-nrf_gpio_port_in_read
	.section	.text.nrf_gpio_port_out_set,"ax",%progbits
	.align	1
	.syntax unified
	.thumb
	.thumb_func
	.fpu fpv4-sp-d16
	.type	nrf_gpio_port_out_set, %function
nrf_gpio_port_out_set:
.LFB194:
	.loc 2 729 1
	@ args = 0, pretend = 0, frame = 8
	@ frame_needed = 0, uses_anonymous_args = 0
	@ link register save eliminated.
	sub	sp, sp, #8
.LCFI75:
	str	r0, [sp, #4]
	str	r1, [sp]
	.loc 2 730 19
	ldr	r3, [sp, #4]
	ldr	r2, [sp]
	str	r2, [r3, #1288]
	.loc 2 731 1
	nop
	add	sp, sp, #8
.LCFI76:
	@ sp needed
	bx	lr
.LFE194:
	.size	nrf_gpio_port_out_set, .-nrf_gpio_port_out_set
	.section	.text.nrf_gpio_port_out_clear,"ax",%progbits
	.align	1
	.syntax unified
	.thumb
	.thumb_func
	.fpu fpv4-sp-d16
	.type	nrf_gpio_port_out_clear, %function
nrf_gpio_port_out_clear:
.LFB195:
	.loc 2 735 1
	@ args = 0, pretend = 0, frame = 8
	@ frame_needed = 0, uses_anonymous_args = 0
	@ link register save eliminated.
	sub	sp, sp, #8
.LCFI77:
	str	r0, [sp, #4]
	str	r1, [sp]
	.loc 2 736 19
	ldr	r3, [sp, #4]
	ldr	r2, [sp]
	str	r2, [r3, #1292]
	.loc 2 737 1
	nop
	add	sp, sp, #8
.LCFI78:
	@ sp needed
	bx	lr
.LFE195:
	.size	nrf_gpio_port_out_clear, .-nrf_gpio_port_out_clear
	.section	.text.nrf_gpio_ports_read,"ax",%progbits
	.align	1
	.syntax unified
	.thumb
	.thumb_func
	.fpu fpv4-sp-d16
	.type	nrf_gpio_ports_read, %function
nrf_gpio_ports_read:
.LFB196:
	.loc 2 741 1
	@ args = 0, pretend = 0, frame = 24
	@ frame_needed = 0, uses_anonymous_args = 0
	push	{lr}
.LCFI79:
	sub	sp, sp, #28
.LCFI80:
	str	r0, [sp, #12]
	str	r1, [sp, #8]
	str	r2, [sp, #4]
	.loc 2 742 21
	mov	r3, #1342177280
	str	r3, [sp, #16]
	.loc 2 747 12
	ldr	r3, [sp, #12]
	str	r3, [sp, #20]
	.loc 2 747 5
	b	.L71
.L72:
	.loc 2 749 51 discriminator 3
	ldr	r3, [sp, #20]
	lsls	r3, r3, #2
	adds	r3, r3, #24
	add	r3, sp, r3
	ldr	r3, [r3, #-8]
	.loc 2 749 20 discriminator 3
	mov	r0, r3
	bl	nrf_gpio_port_in_read
	mov	r2, r0
	.loc 2 749 18 discriminator 3
	ldr	r3, [sp, #4]
	str	r2, [r3]
	.loc 2 750 16 discriminator 3
	ldr	r3, [sp, #4]
	adds	r3, r3, #4
	str	r3, [sp, #4]
	.loc 2 747 54 discriminator 3
	ldr	r3, [sp, #20]
	adds	r3, r3, #1
	str	r3, [sp, #20]
.L71:
	.loc 2 747 42 discriminator 1
	ldr	r2, [sp, #12]
	ldr	r3, [sp, #8]
	add	r3, r3, r2
	.loc 2 747 5 discriminator 1
	ldr	r2, [sp, #20]
	cmp	r2, r3
	bcc	.L72
	.loc 2 752 1
	nop
	nop
	add	sp, sp, #28
.LCFI81:
	@ sp needed
	ldr	pc, [sp], #4
.LFE196:
	.size	nrf_gpio_ports_read, .-nrf_gpio_ports_read
	.section	.text.nrf_bitmask_bit_is_set,"ax",%progbits
	.align	1
	.syntax unified
	.thumb
	.thumb_func
	.fpu fpv4-sp-d16
	.type	nrf_bitmask_bit_is_set, %function
nrf_bitmask_bit_is_set:
.LFB207:
	.file 3 "../../../nRF5_SDK_14.2.0/components/libraries/util/nrf_bitmask.h"
	.loc 3 62 1
	@ args = 0, pretend = 0, frame = 16
	@ frame_needed = 0, uses_anonymous_args = 0
	@ link register save eliminated.
	sub	sp, sp, #16
.LCFI82:
	str	r0, [sp, #4]
	str	r1, [sp]
	.loc 3 63 21
	ldr	r3, [sp]
	str	r3, [sp, #12]
	.loc 3 64 14
	ldr	r3, [sp, #4]
	lsrs	r3, r3, #3
	str	r3, [sp, #8]
	.loc 3 65 9
	ldr	r3, [sp, #4]
	and	r3, r3, #7
	str	r3, [sp, #4]
	.loc 3 66 15
	movs	r2, #1
	ldr	r3, [sp, #4]
	lsl	r3, r2, r3
	.loc 3 66 32
	ldr	r1, [sp, #12]
	ldr	r2, [sp, #8]
	add	r2, r2, r1
	ldrb	r2, [r2]	@ zero_extendqisi2
	.loc 3 66 23
	ands	r3, r3, r2
	.loc 3 67 1
	mov	r0, r3
	add	sp, sp, #16
.LCFI83:
	@ sp needed
	bx	lr
.LFE207:
	.size	nrf_bitmask_bit_is_set, .-nrf_bitmask_bit_is_set
	.section	.text.nrf_bitmask_bit_set,"ax",%progbits
	.align	1
	.syntax unified
	.thumb
	.thumb_func
	.fpu fpv4-sp-d16
	.type	nrf_bitmask_bit_set, %function
nrf_bitmask_bit_set:
.LFB208:
	.loc 3 76 1
	@ args = 0, pretend = 0, frame = 16
	@ frame_needed = 0, uses_anonymous_args = 0
	@ link register save eliminated.
	sub	sp, sp, #16
.LCFI84:
	str	r0, [sp, #4]
	str	r1, [sp]
	.loc 3 77 15
	ldr	r3, [sp]
	str	r3, [sp, #12]
	.loc 3 78 14
	ldr	r3, [sp, #4]
	lsrs	r3, r3, #3
	str	r3, [sp, #8]
	.loc 3 79 9
	ldr	r3, [sp, #4]
	and	r3, r3, #7
	str	r3, [sp, #4]
	.loc 3 80 23
	ldr	r2, [sp, #12]
	ldr	r3, [sp, #8]
	add	r3, r3, r2
	ldrb	r3, [r3]	@ zero_extendqisi2
	sxtb	r2, r3
	.loc 3 80 29
	movs	r1, #1
	ldr	r3, [sp, #4]
	lsl	r3, r1, r3
	.loc 3 80 23
	sxtb	r3, r3
	orrs	r3, r3, r2
	sxtb	r1, r3
	ldr	r2, [sp, #12]
	ldr	r3, [sp, #8]
	add	r3, r3, r2
	uxtb	r2, r1
	strb	r2, [r3]
	.loc 3 81 1
	nop
	add	sp, sp, #16
.LCFI85:
	@ sp needed
	bx	lr
.LFE208:
	.size	nrf_bitmask_bit_set, .-nrf_bitmask_bit_set
	.section	.bss.m_cb,"aw",%nobits
	.align	2
	.type	m_cb, %object
	.size	m_cb, 88
m_cb:
	.space	88
	.section	.text.pin_in_use,"ax",%progbits
	.align	1
	.syntax unified
	.thumb
	.thumb_func
	.fpu fpv4-sp-d16
	.type	pin_in_use, %function
pin_in_use:
.LFB212:
	.file 4 "/Users/arthurbabu/Desktop/SD9/mini_projet/dwm1001-examples/nRF5_SDK_14.2.0/components/drivers_nrf/gpiote/nrf_drv_gpiote.c"
	.loc 4 121 1
	@ args = 0, pretend = 0, frame = 8
	@ frame_needed = 0, uses_anonymous_args = 0
	@ link register save eliminated.
	sub	sp, sp, #8
.LCFI86:
	str	r0, [sp, #4]
	.loc 4 122 33
	ldr	r2, .L78
	ldr	r3, [sp, #4]
	add	r3, r3, r2
	adds	r3, r3, #48
	ldrsb	r3, [r3]
	.loc 4 122 39
	cmp	r3, #-1
	ite	ne
	movne	r3, #1
	moveq	r3, #0
	uxtb	r3, r3
	.loc 4 123 1
	mov	r0, r3
	add	sp, sp, #8
.LCFI87:
	@ sp needed
	bx	lr
.L79:
	.align	2
.L78:
	.word	m_cb
.LFE212:
	.size	pin_in_use, .-pin_in_use
	.section	.text.pin_in_use_as_non_task_out,"ax",%progbits
	.align	1
	.syntax unified
	.thumb
	.thumb_func
	.fpu fpv4-sp-d16
	.type	pin_in_use_as_non_task_out, %function
pin_in_use_as_non_task_out:
.LFB213:
	.loc 4 127 1
	@ args = 0, pretend = 0, frame = 8
	@ frame_needed = 0, uses_anonymous_args = 0
	@ link register save eliminated.
	sub	sp, sp, #8
.LCFI88:
	str	r0, [sp, #4]
	.loc 4 128 33
	ldr	r2, .L82
	ldr	r3, [sp, #4]
	add	r3, r3, r2
	adds	r3, r3, #48
	ldrsb	r3, [r3]
	.loc 4 128 39
	cmn	r3, #2
	ite	eq
	moveq	r3, #1
	movne	r3, #0
	uxtb	r3, r3
	.loc 4 129 1
	mov	r0, r3
	add	sp, sp, #8
.LCFI89:
	@ sp needed
	bx	lr
.L83:
	.align	2
.L82:
	.word	m_cb
.LFE213:
	.size	pin_in_use_as_non_task_out, .-pin_in_use_as_non_task_out
	.section	.text.pin_in_use_by_te,"ax",%progbits
	.align	1
	.syntax unified
	.thumb
	.thumb_func
	.fpu fpv4-sp-d16
	.type	pin_in_use_by_te, %function
pin_in_use_by_te:
.LFB214:
	.loc 4 133 1
	@ args = 0, pretend = 0, frame = 8
	@ frame_needed = 0, uses_anonymous_args = 0
	@ link register save eliminated.
	sub	sp, sp, #8
.LCFI90:
	str	r0, [sp, #4]
	.loc 4 134 33
	ldr	r2, .L88
	ldr	r3, [sp, #4]
	add	r3, r3, r2
	adds	r3, r3, #48
	ldrsb	r3, [r3]
	.loc 4 135 35
	cmp	r3, #0
	blt	.L85
	.loc 4 134 67 discriminator 1
	ldr	r2, .L88
	ldr	r3, [sp, #4]
	add	r3, r3, r2
	adds	r3, r3, #48
	ldrsb	r3, [r3]
	.loc 4 135 35 discriminator 1
	cmp	r3, #7
	bgt	.L85
	.loc 4 135 35 is_stmt 0 discriminator 3
	movs	r3, #1
	b	.L86
.L85:
	.loc 4 135 35 discriminator 4
	movs	r3, #0
.L86:
	.loc 4 135 35 discriminator 6
	and	r3, r3, #1
	uxtb	r3, r3
	.loc 4 136 1 is_stmt 1 discriminator 6
	mov	r0, r3
	add	sp, sp, #8
.LCFI91:
	@ sp needed
	bx	lr
.L89:
	.align	2
.L88:
	.word	m_cb
.LFE214:
	.size	pin_in_use_by_te, .-pin_in_use_by_te
	.section	.text.pin_in_use_by_port,"ax",%progbits
	.align	1
	.syntax unified
	.thumb
	.thumb_func
	.fpu fpv4-sp-d16
	.type	pin_in_use_by_port, %function
pin_in_use_by_port:
.LFB215:
	.loc 4 140 1
	@ args = 0, pretend = 0, frame = 8
	@ frame_needed = 0, uses_anonymous_args = 0
	@ link register save eliminated.
	sub	sp, sp, #8
.LCFI92:
	str	r0, [sp, #4]
	.loc 4 141 33
	ldr	r2, .L92
	ldr	r3, [sp, #4]
	add	r3, r3, r2
	adds	r3, r3, #48
	ldrsb	r3, [r3]
	.loc 4 141 39
	cmp	r3, #7
	ite	gt
	movgt	r3, #1
	movle	r3, #0
	uxtb	r3, r3
	.loc 4 142 1
	mov	r0, r3
	add	sp, sp, #8
.LCFI93:
	@ sp needed
	bx	lr
.L93:
	.align	2
.L92:
	.word	m_cb
.LFE215:
	.size	pin_in_use_by_port, .-pin_in_use_by_port
	.section	.text.pin_in_use_by_gpiote,"ax",%progbits
	.align	1
	.syntax unified
	.thumb
	.thumb_func
	.fpu fpv4-sp-d16
	.type	pin_in_use_by_gpiote, %function
pin_in_use_by_gpiote:
.LFB216:
	.loc 4 146 1
	@ args = 0, pretend = 0, frame = 8
	@ frame_needed = 0, uses_anonymous_args = 0
	@ link register save eliminated.
	sub	sp, sp, #8
.LCFI94:
	str	r0, [sp, #4]
	.loc 4 147 33
	ldr	r2, .L96
	ldr	r3, [sp, #4]
	add	r3, r3, r2
	adds	r3, r3, #48
	ldrsb	r3, [r3]
	.loc 4 147 39
	mvns	r3, r3
	uxtb	r3, r3
	lsrs	r3, r3, #7
	uxtb	r3, r3
	.loc 4 148 1
	mov	r0, r3
	add	sp, sp, #8
.LCFI95:
	@ sp needed
	bx	lr
.L97:
	.align	2
.L96:
	.word	m_cb
.LFE216:
	.size	pin_in_use_by_gpiote, .-pin_in_use_by_gpiote
	.section	.text.pin_in_use_by_te_set,"ax",%progbits
	.align	1
	.syntax unified
	.thumb
	.thumb_func
	.fpu fpv4-sp-d16
	.type	pin_in_use_by_te_set, %function
pin_in_use_by_te_set:
.LFB217:
	.loc 4 155 1
	@ args = 0, pretend = 0, frame = 16
	@ frame_needed = 0, uses_anonymous_args = 0
	@ link register save eliminated.
	sub	sp, sp, #16
.LCFI96:
	str	r0, [sp, #12]
	str	r1, [sp, #8]
	str	r2, [sp, #4]
	strb	r3, [sp, #3]
	.loc 4 156 31
	ldr	r3, [sp, #8]
	sxtb	r1, r3
	ldr	r2, .L101
	ldr	r3, [sp, #12]
	add	r3, r3, r2
	adds	r3, r3, #48
	mov	r2, r1
	strb	r2, [r3]
	.loc 4 157 31
	ldr	r1, .L101
	ldr	r3, [sp, #8]
	ldr	r2, [sp, #4]
	str	r2, [r1, r3, lsl #2]
	.loc 4 158 9
	ldrb	r3, [sp, #3]
	eor	r3, r3, #1
	uxtb	r3, r3
	.loc 4 158 8
	cmp	r3, #0
	beq	.L100
	.loc 4 160 44
	ldr	r3, [sp, #8]
	subs	r3, r3, #8
	.loc 4 160 63
	ldr	r2, [sp, #12]
	sxtb	r1, r2
	.loc 4 160 61
	ldr	r2, .L101
	add	r3, r3, r2
	mov	r2, r1
	strb	r2, [r3, #80]
.L100:
	.loc 4 162 1
	nop
	add	sp, sp, #16
.LCFI97:
	@ sp needed
	bx	lr
.L102:
	.align	2
.L101:
	.word	m_cb
.LFE217:
	.size	pin_in_use_by_te_set, .-pin_in_use_by_te_set
	.section	.text.pin_in_use_set,"ax",%progbits
	.align	1
	.syntax unified
	.thumb
	.thumb_func
	.fpu fpv4-sp-d16
	.type	pin_in_use_set, %function
pin_in_use_set:
.LFB218:
	.loc 4 166 1
	@ args = 0, pretend = 0, frame = 8
	@ frame_needed = 0, uses_anonymous_args = 0
	@ link register save eliminated.
	sub	sp, sp, #8
.LCFI98:
	str	r0, [sp, #4]
	.loc 4 167 31
	ldr	r2, .L104
	ldr	r3, [sp, #4]
	add	r3, r3, r2
	adds	r3, r3, #48
	movs	r2, #254
	strb	r2, [r3]
	.loc 4 168 1
	nop
	add	sp, sp, #8
.LCFI99:
	@ sp needed
	bx	lr
.L105:
	.align	2
.L104:
	.word	m_cb
.LFE218:
	.size	pin_in_use_set, .-pin_in_use_set
	.section	.text.pin_in_use_clear,"ax",%progbits
	.align	1
	.syntax unified
	.thumb
	.thumb_func
	.fpu fpv4-sp-d16
	.type	pin_in_use_clear, %function
pin_in_use_clear:
.LFB219:
	.loc 4 172 1
	@ args = 0, pretend = 0, frame = 8
	@ frame_needed = 0, uses_anonymous_args = 0
	@ link register save eliminated.
	sub	sp, sp, #8
.LCFI100:
	str	r0, [sp, #4]
	.loc 4 173 31
	ldr	r2, .L107
	ldr	r3, [sp, #4]
	add	r3, r3, r2
	adds	r3, r3, #48
	movs	r2, #255
	strb	r2, [r3]
	.loc 4 174 1
	nop
	add	sp, sp, #8
.LCFI101:
	@ sp needed
	bx	lr
.L108:
	.align	2
.L107:
	.word	m_cb
.LFE219:
	.size	pin_in_use_clear, .-pin_in_use_clear
	.section	.text.channel_port_get,"ax",%progbits
	.align	1
	.syntax unified
	.thumb
	.thumb_func
	.fpu fpv4-sp-d16
	.type	channel_port_get, %function
channel_port_get:
.LFB220:
	.loc 4 178 1
	@ args = 0, pretend = 0, frame = 8
	@ frame_needed = 0, uses_anonymous_args = 0
	@ link register save eliminated.
	sub	sp, sp, #8
.LCFI102:
	str	r0, [sp, #4]
	.loc 4 179 32
	ldr	r2, .L111
	ldr	r3, [sp, #4]
	add	r3, r3, r2
	adds	r3, r3, #48
	ldrsb	r3, [r3]
	.loc 4 180 1
	mov	r0, r3
	add	sp, sp, #8
.LCFI103:
	@ sp needed
	bx	lr
.L112:
	.align	2
.L111:
	.word	m_cb
.LFE220:
	.size	channel_port_get, .-channel_port_get
	.section	.text.channel_handler_get,"ax",%progbits
	.align	1
	.syntax unified
	.thumb
	.thumb_func
	.fpu fpv4-sp-d16
	.type	channel_handler_get, %function
channel_handler_get:
.LFB221:
	.loc 4 184 1
	@ args = 0, pretend = 0, frame = 8
	@ frame_needed = 0, uses_anonymous_args = 0
	@ link register save eliminated.
	sub	sp, sp, #8
.LCFI104:
	str	r0, [sp, #4]
	.loc 4 185 25
	ldr	r2, .L115
	ldr	r3, [sp, #4]
	ldr	r3, [r2, r3, lsl #2]
	.loc 4 186 1
	mov	r0, r3
	add	sp, sp, #8
.LCFI105:
	@ sp needed
	bx	lr
.L116:
	.align	2
.L115:
	.word	m_cb
.LFE221:
	.size	channel_handler_get, .-channel_handler_get
	.section	.text.channel_port_alloc,"ax",%progbits
	.align	1
	.syntax unified
	.thumb
	.thumb_func
	.fpu fpv4-sp-d16
	.type	channel_port_alloc, %function
channel_port_alloc:
.LFB222:
	.loc 4 190 1
	@ args = 0, pretend = 0, frame = 32
	@ frame_needed = 0, uses_anonymous_args = 0
	push	{lr}
.LCFI106:
	sub	sp, sp, #36
.LCFI107:
	str	r0, [sp, #12]
	str	r1, [sp, #8]
	mov	r3, r2
	strb	r3, [sp, #7]
	.loc 4 191 14
	movs	r3, #255
	strb	r3, [sp, #31]
	.loc 4 194 38
	ldrb	r3, [sp, #7]	@ zero_extendqisi2
	cmp	r3, #0
	beq	.L118
	.loc 4 194 38 is_stmt 0 discriminator 1
	movs	r3, #0
	b	.L119
.L118:
	.loc 4 194 38 discriminator 2
	movs	r3, #8
.L119:
	.loc 4 194 14 is_stmt 1 discriminator 4
	str	r3, [sp, #20]
	.loc 4 196 33 discriminator 4
	ldrb	r3, [sp, #7]	@ zero_extendqisi2
	cmp	r3, #0
	beq	.L120
	.loc 4 196 33 is_stmt 0 discriminator 1
	movs	r3, #8
	b	.L121
.L120:
	.loc 4 196 33 discriminator 2
	movs	r3, #12
.L121:
	.loc 4 195 14 is_stmt 1
	str	r3, [sp, #16]
	.loc 4 200 12
	ldr	r3, [sp, #20]
	str	r3, [sp, #24]
	.loc 4 200 5
	b	.L122
.L125:
	.loc 4 202 26
	ldr	r2, .L127
	ldr	r3, [sp, #24]
	ldr	r3, [r2, r3, lsl #2]
	.loc 4 202 12
	cmp	r3, #-1
	bne	.L123
	.loc 4 204 13
	ldrb	r3, [sp, #7]	@ zero_extendqisi2
	ldr	r2, [sp, #8]
	ldr	r1, [sp, #24]
	ldr	r0, [sp, #12]
	bl	pin_in_use_by_te_set
	.loc 4 205 24
	ldr	r3, [sp, #24]
	strb	r3, [sp, #31]
	.loc 4 206 13
	b	.L124
.L123:
	.loc 4 200 39 discriminator 2
	ldr	r3, [sp, #24]
	adds	r3, r3, #1
	str	r3, [sp, #24]
.L122:
	.loc 4 200 5 discriminator 1
	ldr	r2, [sp, #24]
	ldr	r3, [sp, #16]
	cmp	r2, r3
	bcc	.L125
.L124:
	.loc 4 210 12
	ldrsb	r3, [sp, #31]
	.loc 4 211 1
	mov	r0, r3
	add	sp, sp, #36
.LCFI108:
	@ sp needed
	ldr	pc, [sp], #4
.L128:
	.align	2
.L127:
	.word	m_cb
.LFE222:
	.size	channel_port_alloc, .-channel_port_alloc
	.section	.text.channel_free,"ax",%progbits
	.align	1
	.syntax unified
	.thumb
	.thumb_func
	.fpu fpv4-sp-d16
	.type	channel_free, %function
channel_free:
.LFB223:
	.loc 4 215 1
	@ args = 0, pretend = 0, frame = 8
	@ frame_needed = 0, uses_anonymous_args = 0
	@ link register save eliminated.
	sub	sp, sp, #8
.LCFI109:
	mov	r3, r0
	strb	r3, [sp, #7]
	.loc 4 216 18
	ldrb	r3, [sp, #7]	@ zero_extendqisi2
	.loc 4 216 31
	ldr	r2, .L132
	mov	r1, #-1
	str	r1, [r2, r3, lsl #2]
	.loc 4 217 8
	ldrb	r3, [sp, #7]	@ zero_extendqisi2
	cmp	r3, #7
	bls	.L131
	.loc 4 219 44
	ldrb	r3, [sp, #7]	@ zero_extendqisi2
	subs	r3, r3, #8
	.loc 4 219 61
	ldr	r2, .L132
	add	r3, r3, r2
	movs	r2, #255
	strb	r2, [r3, #80]
.L131:
	.loc 4 221 1
	nop
	add	sp, sp, #8
.LCFI110:
	@ sp needed
	bx	lr
.L133:
	.align	2
.L132:
	.word	m_cb
.LFE223:
	.size	channel_free, .-channel_free
	.section	.text.nrf_drv_gpiote_init,"ax",%progbits
	.align	1
	.global	nrf_drv_gpiote_init
	.syntax unified
	.thumb
	.thumb_func
	.fpu fpv4-sp-d16
	.type	nrf_drv_gpiote_init, %function
nrf_drv_gpiote_init:
.LFB224:
	.loc 4 225 1
	@ args = 0, pretend = 0, frame = 8
	@ frame_needed = 0, uses_anonymous_args = 0
	push	{lr}
.LCFI111:
	sub	sp, sp, #12
.LCFI112:
	.loc 4 228 13
	ldr	r3, .L141
	ldrb	r3, [r3, #84]	@ zero_extendqisi2
	.loc 4 228 8
	cmp	r3, #0
	beq	.L135
	.loc 4 230 18
	movs	r3, #8
	str	r3, [sp]
	.loc 4 234 16
	ldr	r3, [sp]
	b	.L136
.L135:
	.loc 4 239 12
	movs	r3, #0
	strb	r3, [sp, #7]
	.loc 4 239 5
	b	.L137
.L138:
	.loc 4 241 9 discriminator 3
	ldrb	r3, [sp, #7]	@ zero_extendqisi2
	mov	r0, r3
	bl	pin_in_use_clear
	.loc 4 239 38 discriminator 3
	ldrb	r3, [sp, #7]	@ zero_extendqisi2
	adds	r3, r3, #1
	strb	r3, [sp, #7]
.L137:
	.loc 4 239 5 discriminator 1
	ldrb	r3, [sp, #7]	@ zero_extendqisi2
	cmp	r3, #31
	bls	.L138
	.loc 4 244 12
	movs	r3, #0
	strb	r3, [sp, #7]
	.loc 4 244 5
	b	.L139
.L140:
	.loc 4 246 9 discriminator 3
	ldrb	r3, [sp, #7]	@ zero_extendqisi2
	mov	r0, r3
	bl	channel_free
	.loc 4 244 79 discriminator 3
	ldrb	r3, [sp, #7]	@ zero_extendqisi2
	adds	r3, r3, #1
	strb	r3, [sp, #7]
.L139:
	.loc 4 244 5 discriminator 1
	ldrb	r3, [sp, #7]	@ zero_extendqisi2
	cmp	r3, #11
	bls	.L140
	.loc 4 249 5
	movs	r1, #7
	movs	r0, #6
	bl	nrf_drv_common_irq_enable
	.loc 4 250 5
	mov	r0, #380
	bl	nrf_gpiote_event_clear
	.loc 4 251 5
	mov	r0, #-2147483648
	bl	nrf_gpiote_int_enable
	.loc 4 252 16
	ldr	r3, .L141
	movs	r2, #1
	strb	r2, [r3, #84]
	.loc 4 254 14
	movs	r3, #0
	str	r3, [sp]
	.loc 4 257 12
	ldr	r3, [sp]
.L136:
	.loc 4 258 1
	mov	r0, r3
	add	sp, sp, #12
.LCFI113:
	@ sp needed
	ldr	pc, [sp], #4
.L142:
	.align	2
.L141:
	.word	m_cb
.LFE224:
	.size	nrf_drv_gpiote_init, .-nrf_drv_gpiote_init
	.section	.text.nrf_drv_gpiote_is_init,"ax",%progbits
	.align	1
	.global	nrf_drv_gpiote_is_init
	.syntax unified
	.thumb
	.thumb_func
	.fpu fpv4-sp-d16
	.type	nrf_drv_gpiote_is_init, %function
nrf_drv_gpiote_is_init:
.LFB225:
	.loc 4 262 1
	@ args = 0, pretend = 0, frame = 0
	@ frame_needed = 0, uses_anonymous_args = 0
	@ link register save eliminated.
	.loc 4 263 17
	ldr	r3, .L145
	ldrb	r3, [r3, #84]	@ zero_extendqisi2
	.loc 4 263 63
	cmp	r3, #0
	ite	ne
	movne	r3, #1
	moveq	r3, #0
	uxtb	r3, r3
	.loc 4 264 1
	mov	r0, r3
	bx	lr
.L146:
	.align	2
.L145:
	.word	m_cb
.LFE225:
	.size	nrf_drv_gpiote_is_init, .-nrf_drv_gpiote_is_init
	.section	.text.nrf_drv_gpiote_uninit,"ax",%progbits
	.align	1
	.global	nrf_drv_gpiote_uninit
	.syntax unified
	.thumb
	.thumb_func
	.fpu fpv4-sp-d16
	.type	nrf_drv_gpiote_uninit, %function
nrf_drv_gpiote_uninit:
.LFB226:
	.loc 4 268 1
	@ args = 0, pretend = 0, frame = 8
	@ frame_needed = 0, uses_anonymous_args = 0
	push	{lr}
.LCFI114:
	sub	sp, sp, #12
.LCFI115:
	.loc 4 273 12
	movs	r3, #0
	str	r3, [sp, #4]
	.loc 4 273 5
	b	.L148
.L151:
	.loc 4 275 13
	ldr	r0, [sp, #4]
	bl	pin_in_use_as_non_task_out
	mov	r3, r0
	.loc 4 275 12
	cmp	r3, #0
	beq	.L149
	.loc 4 277 13
	ldr	r0, [sp, #4]
	bl	nrf_drv_gpiote_out_uninit
	b	.L150
.L149:
	.loc 4 279 19
	ldr	r0, [sp, #4]
	bl	pin_in_use_by_gpiote
	mov	r3, r0
	.loc 4 279 17
	cmp	r3, #0
	beq	.L150
	.loc 4 284 13
	ldr	r0, [sp, #4]
	bl	nrf_drv_gpiote_in_uninit
.L150:
	.loc 4 273 38 discriminator 2
	ldr	r3, [sp, #4]
	adds	r3, r3, #1
	str	r3, [sp, #4]
.L148:
	.loc 4 273 5 discriminator 1
	ldr	r3, [sp, #4]
	cmp	r3, #31
	bls	.L151
	.loc 4 287 16
	ldr	r3, .L152
	movs	r2, #0
	strb	r2, [r3, #84]
	.loc 4 289 1
	nop
	add	sp, sp, #12
.LCFI116:
	@ sp needed
	ldr	pc, [sp], #4
.L153:
	.align	2
.L152:
	.word	m_cb
.LFE226:
	.size	nrf_drv_gpiote_uninit, .-nrf_drv_gpiote_uninit
	.section	.text.nrf_drv_gpiote_out_init,"ax",%progbits
	.align	1
	.global	nrf_drv_gpiote_out_init
	.syntax unified
	.thumb
	.thumb_func
	.fpu fpv4-sp-d16
	.type	nrf_drv_gpiote_out_init, %function
nrf_drv_gpiote_out_init:
.LFB227:
	.loc 4 294 1
	@ args = 0, pretend = 0, frame = 16
	@ frame_needed = 0, uses_anonymous_args = 0
	push	{lr}
.LCFI117:
	sub	sp, sp, #20
.LCFI118:
	str	r0, [sp, #4]
	str	r1, [sp]
	.loc 4 299 16
	movs	r3, #0
	str	r3, [sp, #12]
	.loc 4 301 9
	ldr	r0, [sp, #4]
	bl	pin_in_use
	mov	r3, r0
	.loc 4 301 8
	cmp	r3, #0
	beq	.L155
	.loc 4 303 18
	movs	r3, #8
	str	r3, [sp, #12]
	b	.L156
.L155:
	.loc 4 307 21
	ldr	r3, [sp]
	ldrb	r3, [r3, #2]	@ zero_extendqisi2
	.loc 4 307 12
	cmp	r3, #0
	beq	.L157
.LBB2:
	.loc 4 309 30
	movs	r2, #1
	movs	r1, #0
	ldr	r0, [sp, #4]
	bl	channel_port_alloc
	mov	r3, r0
	strb	r3, [sp, #11]
	.loc 4 311 16
	ldrsb	r3, [sp, #11]
	cmp	r3, #-1
	beq	.L158
	.loc 4 313 17
	ldrsb	r0, [sp, #11]
	ldr	r3, [sp]
	ldrb	r2, [r3]	@ zero_extendqisi2
	ldr	r3, [sp]
	ldrb	r3, [r3, #1]	@ zero_extendqisi2
	ldr	r1, [sp, #4]
	bl	nrf_gpiote_task_configure
	b	.L159
.L158:
	.loc 4 317 26
	movs	r3, #4
	str	r3, [sp, #12]
	b	.L159
.L157:
.LBE2:
	.loc 4 322 13
	ldr	r0, [sp, #4]
	bl	pin_in_use_set
.L159:
	.loc 4 325 12
	ldr	r3, [sp, #12]
	cmp	r3, #0
	bne	.L156
	.loc 4 327 25
	ldr	r3, [sp]
	ldrb	r3, [r3, #1]	@ zero_extendqisi2
	.loc 4 327 16
	cmp	r3, #1
	bne	.L160
	.loc 4 329 17
	ldr	r0, [sp, #4]
	bl	nrf_gpio_pin_set
	b	.L161
.L160:
	.loc 4 333 17
	ldr	r0, [sp, #4]
	bl	nrf_gpio_pin_clear
.L161:
	.loc 4 336 13
	ldr	r0, [sp, #4]
	bl	nrf_gpio_cfg_output
.L156:
	.loc 4 342 12
	ldr	r3, [sp, #12]
	.loc 4 343 1
	mov	r0, r3
	add	sp, sp, #20
.LCFI119:
	@ sp needed
	ldr	pc, [sp], #4
.LFE227:
	.size	nrf_drv_gpiote_out_init, .-nrf_drv_gpiote_out_init
	.section	.text.nrf_drv_gpiote_out_uninit,"ax",%progbits
	.align	1
	.global	nrf_drv_gpiote_out_uninit
	.syntax unified
	.thumb
	.thumb_func
	.fpu fpv4-sp-d16
	.type	nrf_drv_gpiote_out_uninit, %function
nrf_drv_gpiote_out_uninit:
.LFB228:
	.loc 4 347 1
	@ args = 0, pretend = 0, frame = 8
	@ frame_needed = 0, uses_anonymous_args = 0
	push	{lr}
.LCFI120:
	sub	sp, sp, #12
.LCFI121:
	str	r0, [sp, #4]
	.loc 4 351 9
	ldr	r0, [sp, #4]
	bl	pin_in_use_by_te
	mov	r3, r0
	.loc 4 351 8
	cmp	r3, #0
	beq	.L164
	.loc 4 353 31
	ldr	r0, [sp, #4]
	bl	channel_port_get
	mov	r3, r0
	.loc 4 353 9
	uxtb	r3, r3
	mov	r0, r3
	bl	channel_free
	.loc 4 354 31
	ldr	r0, [sp, #4]
	bl	channel_port_get
	mov	r3, r0
	.loc 4 354 9
	mov	r0, r3
	bl	nrf_gpiote_te_default
.L164:
	.loc 4 356 5
	ldr	r0, [sp, #4]
	bl	pin_in_use_clear
	.loc 4 358 5
	ldr	r0, [sp, #4]
	bl	nrf_gpio_cfg_default
	.loc 4 359 1
	nop
	add	sp, sp, #12
.LCFI122:
	@ sp needed
	ldr	pc, [sp], #4
.LFE228:
	.size	nrf_drv_gpiote_out_uninit, .-nrf_drv_gpiote_out_uninit
	.section	.text.nrf_drv_gpiote_out_set,"ax",%progbits
	.align	1
	.global	nrf_drv_gpiote_out_set
	.syntax unified
	.thumb
	.thumb_func
	.fpu fpv4-sp-d16
	.type	nrf_drv_gpiote_out_set, %function
nrf_drv_gpiote_out_set:
.LFB229:
	.loc 4 363 1
	@ args = 0, pretend = 0, frame = 8
	@ frame_needed = 0, uses_anonymous_args = 0
	push	{lr}
.LCFI123:
	sub	sp, sp, #12
.LCFI124:
	str	r0, [sp, #4]
	.loc 4 368 5
	ldr	r0, [sp, #4]
	bl	nrf_gpio_pin_set
	.loc 4 369 1
	nop
	add	sp, sp, #12
.LCFI125:
	@ sp needed
	ldr	pc, [sp], #4
.LFE229:
	.size	nrf_drv_gpiote_out_set, .-nrf_drv_gpiote_out_set
	.section	.text.nrf_drv_gpiote_out_clear,"ax",%progbits
	.align	1
	.global	nrf_drv_gpiote_out_clear
	.syntax unified
	.thumb
	.thumb_func
	.fpu fpv4-sp-d16
	.type	nrf_drv_gpiote_out_clear, %function
nrf_drv_gpiote_out_clear:
.LFB230:
	.loc 4 373 1
	@ args = 0, pretend = 0, frame = 8
	@ frame_needed = 0, uses_anonymous_args = 0
	push	{lr}
.LCFI126:
	sub	sp, sp, #12
.LCFI127:
	str	r0, [sp, #4]
	.loc 4 378 5
	ldr	r0, [sp, #4]
	bl	nrf_gpio_pin_clear
	.loc 4 379 1
	nop
	add	sp, sp, #12
.LCFI128:
	@ sp needed
	ldr	pc, [sp], #4
.LFE230:
	.size	nrf_drv_gpiote_out_clear, .-nrf_drv_gpiote_out_clear
	.section	.text.nrf_drv_gpiote_out_toggle,"ax",%progbits
	.align	1
	.global	nrf_drv_gpiote_out_toggle
	.syntax unified
	.thumb
	.thumb_func
	.fpu fpv4-sp-d16
	.type	nrf_drv_gpiote_out_toggle, %function
nrf_drv_gpiote_out_toggle:
.LFB231:
	.loc 4 383 1
	@ args = 0, pretend = 0, frame = 8
	@ frame_needed = 0, uses_anonymous_args = 0
	push	{lr}
.LCFI129:
	sub	sp, sp, #12
.LCFI130:
	str	r0, [sp, #4]
	.loc 4 388 5
	ldr	r0, [sp, #4]
	bl	nrf_gpio_pin_toggle
	.loc 4 389 1
	nop
	add	sp, sp, #12
.LCFI131:
	@ sp needed
	ldr	pc, [sp], #4
.LFE231:
	.size	nrf_drv_gpiote_out_toggle, .-nrf_drv_gpiote_out_toggle
	.section	.text.nrf_drv_gpiote_out_task_enable,"ax",%progbits
	.align	1
	.global	nrf_drv_gpiote_out_task_enable
	.syntax unified
	.thumb
	.thumb_func
	.fpu fpv4-sp-d16
	.type	nrf_drv_gpiote_out_task_enable, %function
nrf_drv_gpiote_out_task_enable:
.LFB232:
	.loc 4 393 1
	@ args = 0, pretend = 0, frame = 8
	@ frame_needed = 0, uses_anonymous_args = 0
	push	{lr}
.LCFI132:
	sub	sp, sp, #12
.LCFI133:
	str	r0, [sp, #4]
	.loc 4 398 48
	ldr	r2, .L169
	ldr	r3, [sp, #4]
	add	r3, r3, r2
	adds	r3, r3, #48
	ldrsb	r3, [r3]
	.loc 4 398 5
	mov	r0, r3
	bl	nrf_gpiote_task_enable
	.loc 4 399 1
	nop
	add	sp, sp, #12
.LCFI134:
	@ sp needed
	ldr	pc, [sp], #4
.L170:
	.align	2
.L169:
	.word	m_cb
.LFE232:
	.size	nrf_drv_gpiote_out_task_enable, .-nrf_drv_gpiote_out_task_enable
	.section	.text.nrf_drv_gpiote_out_task_disable,"ax",%progbits
	.align	1
	.global	nrf_drv_gpiote_out_task_disable
	.syntax unified
	.thumb
	.thumb_func
	.fpu fpv4-sp-d16
	.type	nrf_drv_gpiote_out_task_disable, %function
nrf_drv_gpiote_out_task_disable:
.LFB233:
	.loc 4 403 1
	@ args = 0, pretend = 0, frame = 8
	@ frame_needed = 0, uses_anonymous_args = 0
	push	{lr}
.LCFI135:
	sub	sp, sp, #12
.LCFI136:
	str	r0, [sp, #4]
	.loc 4 408 49
	ldr	r2, .L172
	ldr	r3, [sp, #4]
	add	r3, r3, r2
	adds	r3, r3, #48
	ldrsb	r3, [r3]
	.loc 4 408 5
	mov	r0, r3
	bl	nrf_gpiote_task_disable
	.loc 4 409 1
	nop
	add	sp, sp, #12
.LCFI137:
	@ sp needed
	ldr	pc, [sp], #4
.L173:
	.align	2
.L172:
	.word	m_cb
.LFE233:
	.size	nrf_drv_gpiote_out_task_disable, .-nrf_drv_gpiote_out_task_disable
	.section	.text.nrf_drv_gpiote_out_task_addr_get,"ax",%progbits
	.align	1
	.global	nrf_drv_gpiote_out_task_addr_get
	.syntax unified
	.thumb
	.thumb_func
	.fpu fpv4-sp-d16
	.type	nrf_drv_gpiote_out_task_addr_get, %function
nrf_drv_gpiote_out_task_addr_get:
.LFB234:
	.loc 4 413 1
	@ args = 0, pretend = 0, frame = 16
	@ frame_needed = 0, uses_anonymous_args = 0
	push	{lr}
.LCFI138:
	sub	sp, sp, #20
.LCFI139:
	str	r0, [sp, #4]
	.loc 4 417 31
	ldr	r0, [sp, #4]
	bl	channel_port_get
	mov	r3, r0
	uxtb	r3, r3
	.loc 4 417 24
	lsls	r3, r3, #2
	strb	r3, [sp, #15]
	.loc 4 418 12
	ldrb	r3, [sp, #15]	@ zero_extendqisi2
	mov	r0, r3
	bl	nrf_gpiote_task_addr_get
	mov	r3, r0
	.loc 4 419 1
	mov	r0, r3
	add	sp, sp, #20
.LCFI140:
	@ sp needed
	ldr	pc, [sp], #4
.LFE234:
	.size	nrf_drv_gpiote_out_task_addr_get, .-nrf_drv_gpiote_out_task_addr_get
	.section	.text.nrf_drv_gpiote_set_task_addr_get,"ax",%progbits
	.align	1
	.global	nrf_drv_gpiote_set_task_addr_get
	.syntax unified
	.thumb
	.thumb_func
	.fpu fpv4-sp-d16
	.type	nrf_drv_gpiote_set_task_addr_get, %function
nrf_drv_gpiote_set_task_addr_get:
.LFB235:
	.loc 4 424 1
	@ args = 0, pretend = 0, frame = 16
	@ frame_needed = 0, uses_anonymous_args = 0
	push	{lr}
.LCFI141:
	sub	sp, sp, #20
.LCFI142:
	str	r0, [sp, #4]
	.loc 4 428 31
	ldr	r0, [sp, #4]
	bl	channel_port_get
	mov	r3, r0
	uxtb	r3, r3
	adds	r3, r3, #12
	uxtb	r3, r3
	.loc 4 428 24
	lsls	r3, r3, #2
	strb	r3, [sp, #15]
	.loc 4 429 12
	ldrb	r3, [sp, #15]	@ zero_extendqisi2
	mov	r0, r3
	bl	nrf_gpiote_task_addr_get
	mov	r3, r0
	.loc 4 430 1
	mov	r0, r3
	add	sp, sp, #20
.LCFI143:
	@ sp needed
	ldr	pc, [sp], #4
.LFE235:
	.size	nrf_drv_gpiote_set_task_addr_get, .-nrf_drv_gpiote_set_task_addr_get
	.section	.text.nrf_drv_gpiote_clr_task_addr_get,"ax",%progbits
	.align	1
	.global	nrf_drv_gpiote_clr_task_addr_get
	.syntax unified
	.thumb
	.thumb_func
	.fpu fpv4-sp-d16
	.type	nrf_drv_gpiote_clr_task_addr_get, %function
nrf_drv_gpiote_clr_task_addr_get:
.LFB236:
	.loc 4 437 1
	@ args = 0, pretend = 0, frame = 16
	@ frame_needed = 0, uses_anonymous_args = 0
	push	{lr}
.LCFI144:
	sub	sp, sp, #20
.LCFI145:
	str	r0, [sp, #4]
	.loc 4 441 31
	ldr	r0, [sp, #4]
	bl	channel_port_get
	mov	r3, r0
	uxtb	r3, r3
	adds	r3, r3, #24
	uxtb	r3, r3
	.loc 4 441 24
	lsls	r3, r3, #2
	strb	r3, [sp, #15]
	.loc 4 442 12
	ldrb	r3, [sp, #15]	@ zero_extendqisi2
	mov	r0, r3
	bl	nrf_gpiote_task_addr_get
	mov	r3, r0
	.loc 4 443 1
	mov	r0, r3
	add	sp, sp, #20
.LCFI146:
	@ sp needed
	ldr	pc, [sp], #4
.LFE236:
	.size	nrf_drv_gpiote_clr_task_addr_get, .-nrf_drv_gpiote_clr_task_addr_get
	.section	.text.nrf_drv_gpiote_out_task_force,"ax",%progbits
	.align	1
	.global	nrf_drv_gpiote_out_task_force
	.syntax unified
	.thumb
	.thumb_func
	.fpu fpv4-sp-d16
	.type	nrf_drv_gpiote_out_task_force, %function
nrf_drv_gpiote_out_task_force:
.LFB237:
	.loc 4 449 1
	@ args = 0, pretend = 0, frame = 16
	@ frame_needed = 0, uses_anonymous_args = 0
	push	{lr}
.LCFI147:
	sub	sp, sp, #20
.LCFI148:
	str	r0, [sp, #4]
	mov	r3, r1
	strb	r3, [sp, #3]
	.loc 4 455 47
	ldrb	r3, [sp, #3]	@ zero_extendqisi2
	cmp	r3, #0
	ite	ne
	movne	r3, #1
	moveq	r3, #0
	uxtb	r3, r3
	.loc 4 454 26
	strb	r3, [sp, #15]
	.loc 4 456 47
	ldr	r2, .L181
	ldr	r3, [sp, #4]
	add	r3, r3, r2
	adds	r3, r3, #48
	ldrsb	r3, [r3]
	.loc 4 456 5
	mov	r2, r3
	ldrb	r3, [sp, #15]	@ zero_extendqisi2
	mov	r1, r3
	mov	r0, r2
	bl	nrf_gpiote_task_force
	.loc 4 457 1
	nop
	add	sp, sp, #20
.LCFI149:
	@ sp needed
	ldr	pc, [sp], #4
.L182:
	.align	2
.L181:
	.word	m_cb
.LFE237:
	.size	nrf_drv_gpiote_out_task_force, .-nrf_drv_gpiote_out_task_force
	.section	.text.nrf_drv_gpiote_out_task_trigger,"ax",%progbits
	.align	1
	.global	nrf_drv_gpiote_out_task_trigger
	.syntax unified
	.thumb
	.thumb_func
	.fpu fpv4-sp-d16
	.type	nrf_drv_gpiote_out_task_trigger, %function
nrf_drv_gpiote_out_task_trigger:
.LFB238:
	.loc 4 461 1
	@ args = 0, pretend = 0, frame = 16
	@ frame_needed = 0, uses_anonymous_args = 0
	push	{lr}
.LCFI150:
	sub	sp, sp, #20
.LCFI151:
	str	r0, [sp, #4]
	.loc 4 466 31
	ldr	r0, [sp, #4]
	bl	channel_port_get
	mov	r3, r0
	uxtb	r3, r3
	.loc 4 466 24
	lsls	r3, r3, #2
	strb	r3, [sp, #15]
	.loc 4 467 5
	ldrb	r3, [sp, #15]	@ zero_extendqisi2
	mov	r0, r3
	bl	nrf_gpiote_task_set
	.loc 4 468 1
	nop
	add	sp, sp, #20
.LCFI152:
	@ sp needed
	ldr	pc, [sp], #4
.LFE238:
	.size	nrf_drv_gpiote_out_task_trigger, .-nrf_drv_gpiote_out_task_trigger
	.section	.text.nrf_drv_gpiote_set_task_trigger,"ax",%progbits
	.align	1
	.global	nrf_drv_gpiote_set_task_trigger
	.syntax unified
	.thumb
	.thumb_func
	.fpu fpv4-sp-d16
	.type	nrf_drv_gpiote_set_task_trigger, %function
nrf_drv_gpiote_set_task_trigger:
.LFB239:
	.loc 4 473 1
	@ args = 0, pretend = 0, frame = 16
	@ frame_needed = 0, uses_anonymous_args = 0
	push	{lr}
.LCFI153:
	sub	sp, sp, #20
.LCFI154:
	str	r0, [sp, #4]
	.loc 4 478 31
	ldr	r0, [sp, #4]
	bl	channel_port_get
	mov	r3, r0
	uxtb	r3, r3
	adds	r3, r3, #12
	uxtb	r3, r3
	.loc 4 478 24
	lsls	r3, r3, #2
	strb	r3, [sp, #15]
	.loc 4 479 5
	ldrb	r3, [sp, #15]	@ zero_extendqisi2
	mov	r0, r3
	bl	nrf_gpiote_task_set
	.loc 4 480 1
	nop
	add	sp, sp, #20
.LCFI155:
	@ sp needed
	ldr	pc, [sp], #4
.LFE239:
	.size	nrf_drv_gpiote_set_task_trigger, .-nrf_drv_gpiote_set_task_trigger
	.section	.text.nrf_drv_gpiote_clr_task_trigger,"ax",%progbits
	.align	1
	.global	nrf_drv_gpiote_clr_task_trigger
	.syntax unified
	.thumb
	.thumb_func
	.fpu fpv4-sp-d16
	.type	nrf_drv_gpiote_clr_task_trigger, %function
nrf_drv_gpiote_clr_task_trigger:
.LFB240:
	.loc 4 487 1
	@ args = 0, pretend = 0, frame = 16
	@ frame_needed = 0, uses_anonymous_args = 0
	push	{lr}
.LCFI156:
	sub	sp, sp, #20
.LCFI157:
	str	r0, [sp, #4]
	.loc 4 492 31
	ldr	r0, [sp, #4]
	bl	channel_port_get
	mov	r3, r0
	uxtb	r3, r3
	adds	r3, r3, #24
	uxtb	r3, r3
	.loc 4 492 24
	lsls	r3, r3, #2
	strb	r3, [sp, #15]
	.loc 4 493 5
	ldrb	r3, [sp, #15]	@ zero_extendqisi2
	mov	r0, r3
	bl	nrf_gpiote_task_set
	.loc 4 494 1
	nop
	add	sp, sp, #20
.LCFI158:
	@ sp needed
	ldr	pc, [sp], #4
.LFE240:
	.size	nrf_drv_gpiote_clr_task_trigger, .-nrf_drv_gpiote_clr_task_trigger
	.section	.text.nrf_drv_gpiote_in_init,"ax",%progbits
	.align	1
	.global	nrf_drv_gpiote_in_init
	.syntax unified
	.thumb
	.thumb_func
	.fpu fpv4-sp-d16
	.type	nrf_drv_gpiote_in_init, %function
nrf_drv_gpiote_in_init:
.LFB241:
	.loc 4 502 1
	@ args = 0, pretend = 0, frame = 24
	@ frame_needed = 0, uses_anonymous_args = 0
	push	{lr}
.LCFI159:
	sub	sp, sp, #28
.LCFI160:
	str	r0, [sp, #12]
	str	r1, [sp, #8]
	str	r2, [sp, #4]
	.loc 4 504 16
	movs	r3, #0
	str	r3, [sp, #20]
	.loc 4 507 9
	ldr	r0, [sp, #12]
	bl	pin_in_use_by_gpiote
	mov	r3, r0
	.loc 4 507 8
	cmp	r3, #0
	beq	.L187
	.loc 4 509 18
	movs	r3, #8
	str	r3, [sp, #20]
	b	.L188
.L187:
.LBB3:
	.loc 4 513 26
	ldr	r3, [sp, #8]
	ldrb	r3, [r3, #3]	@ zero_extendqisi2
	mov	r2, r3
	ldr	r1, [sp, #4]
	ldr	r0, [sp, #12]
	bl	channel_port_alloc
	mov	r3, r0
	strb	r3, [sp, #19]
	.loc 4 514 12
	ldrsb	r3, [sp, #19]
	cmp	r3, #-1
	beq	.L189
	.loc 4 516 25
	ldr	r3, [sp, #8]
	ldrb	r3, [r3, #2]	@ zero_extendqisi2
	.loc 4 516 16
	cmp	r3, #0
	beq	.L190
	.loc 4 518 17
	ldr	r0, [sp, #12]
	bl	nrf_gpio_cfg_watcher
	b	.L191
.L190:
	.loc 4 522 17
	ldr	r3, [sp, #8]
	ldrb	r3, [r3, #1]	@ zero_extendqisi2
	mov	r1, r3
	ldr	r0, [sp, #12]
	bl	nrf_gpio_cfg_input
.L191:
	.loc 4 525 25
	ldr	r3, [sp, #8]
	ldrb	r3, [r3, #3]	@ zero_extendqisi2
	.loc 4 525 16
	cmp	r3, #0
	beq	.L192
	.loc 4 527 17
	ldrsb	r0, [sp, #19]
	ldr	r3, [sp, #8]
	ldrb	r3, [r3]	@ zero_extendqisi2
	mov	r2, r3
	ldr	r1, [sp, #12]
	bl	nrf_gpiote_event_configure
	b	.L188
.L192:
	.loc 4 532 56
	ldrsb	r3, [sp, #19]
	subs	r3, r3, #8
	ldr	r2, .L194
	add	r3, r3, r2
	ldrsb	r1, [r3, #80]
	.loc 4 532 68
	ldr	r3, [sp, #8]
	ldrb	r3, [r3]	@ zero_extendqisi2
	.loc 4 532 77
	lsls	r3, r3, #6
	.loc 4 532 56
	sxtb	r2, r3
	ldrsb	r3, [sp, #19]
	subs	r3, r3, #8
	orrs	r2, r2, r1
	sxtb	r1, r2
	ldr	r2, .L194
	add	r3, r3, r2
	mov	r2, r1
	strb	r2, [r3, #80]
	b	.L188
.L189:
	.loc 4 537 22
	movs	r3, #4
	str	r3, [sp, #20]
.L188:
.LBE3:
	.loc 4 543 12
	ldr	r3, [sp, #20]
	.loc 4 544 1
	mov	r0, r3
	add	sp, sp, #28
.LCFI161:
	@ sp needed
	ldr	pc, [sp], #4
.L195:
	.align	2
.L194:
	.word	m_cb
.LFE241:
	.size	nrf_drv_gpiote_in_init, .-nrf_drv_gpiote_in_init
	.section	.text.nrf_drv_gpiote_in_event_enable,"ax",%progbits
	.align	1
	.global	nrf_drv_gpiote_in_event_enable
	.syntax unified
	.thumb
	.thumb_func
	.fpu fpv4-sp-d16
	.type	nrf_drv_gpiote_in_event_enable, %function
nrf_drv_gpiote_in_event_enable:
.LFB242:
	.loc 4 548 1
	@ args = 0, pretend = 0, frame = 32
	@ frame_needed = 0, uses_anonymous_args = 0
	push	{lr}
.LCFI162:
	sub	sp, sp, #36
.LCFI163:
	str	r0, [sp, #4]
	mov	r3, r1
	strb	r3, [sp, #3]
	.loc 4 551 9
	ldr	r0, [sp, #4]
	bl	pin_in_use_by_port
	mov	r3, r0
	.loc 4 551 8
	cmp	r3, #0
	beq	.L197
.LBB4:
	.loc 4 554 37
	ldr	r0, [sp, #4]
	bl	channel_port_get
	mov	r3, r0
	.loc 4 554 59
	subs	r3, r3, #8
	.loc 4 554 36
	ldr	r2, .L206
	add	r3, r3, r2
	ldrsb	r3, [r3, #80]
	.loc 4 553 17
	strb	r3, [sp, #15]
	.loc 4 555 31
	ldrb	r3, [sp, #15]	@ zero_extendqisi2
	lsrs	r3, r3, #6
	strb	r3, [sp, #14]
	.loc 4 558 12
	ldrb	r3, [sp, #14]	@ zero_extendqisi2
	cmp	r3, #3
	bne	.L198
	.loc 4 561 22
	ldr	r0, [sp, #4]
	bl	nrf_gpio_pin_read
	mov	r3, r0
	.loc 4 562 44
	cmp	r3, #0
	beq	.L199
	.loc 4 562 44 is_stmt 0 discriminator 1
	movs	r3, #3
	b	.L200
.L199:
	.loc 4 562 44 discriminator 2
	movs	r3, #2
.L200:
	.loc 4 561 19 is_stmt 1
	strb	r3, [sp, #31]
	b	.L201
.L198:
	.loc 4 567 45
	ldrb	r3, [sp, #14]	@ zero_extendqisi2
	cmp	r3, #1
	bne	.L202
	.loc 4 567 45 is_stmt 0 discriminator 1
	movs	r3, #2
	b	.L203
.L202:
	.loc 4 567 45 discriminator 2
	movs	r3, #3
.L203:
	.loc 4 566 19 is_stmt 1
	strb	r3, [sp, #31]
.L201:
	.loc 4 569 9
	ldrb	r3, [sp, #31]	@ zero_extendqisi2
	mov	r1, r3
	ldr	r0, [sp, #4]
	bl	nrf_gpio_cfg_sense_set
.LBE4:
	.loc 4 589 1
	b	.L205
.L197:
	.loc 4 571 14
	ldr	r0, [sp, #4]
	bl	pin_in_use_by_te
	mov	r3, r0
	.loc 4 571 13
	cmp	r3, #0
	beq	.L205
.LBB5:
	.loc 4 573 48
	ldr	r0, [sp, #4]
	bl	channel_port_get
	mov	r3, r0
	.loc 4 573 29
	str	r3, [sp, #24]
	.loc 4 574 39
	ldr	r3, [sp, #24]
	uxth	r3, r3
	adds	r3, r3, #64
	uxth	r3, r3
	.loc 4 574 29
	lsls	r3, r3, #2
	strh	r3, [sp, #22]	@ movhi
	.loc 4 576 9
	ldr	r3, [sp, #24]
	mov	r0, r3
	bl	nrf_gpiote_event_enable
	.loc 4 578 9
	ldrh	r3, [sp, #22]
	mov	r0, r3
	bl	nrf_gpiote_event_clear
	.loc 4 579 12
	ldrb	r3, [sp, #3]	@ zero_extendqisi2
	cmp	r3, #0
	beq	.L205
.LBB6:
	.loc 4 581 72
	ldr	r0, [sp, #4]
	bl	channel_port_get
	mov	r3, r0
	.loc 4 581 52
	mov	r0, r3
	bl	channel_handler_get
	str	r0, [sp, #16]
	.loc 4 583 16
	ldr	r3, [sp, #16]
	cmp	r3, #0
	beq	.L205
	.loc 4 585 41
	movs	r2, #1
	ldr	r3, [sp, #24]
	lsl	r3, r2, r3
	.loc 4 585 17
	mov	r0, r3
	bl	nrf_gpiote_int_enable
.L205:
.LBE6:
.LBE5:
	.loc 4 589 1
	nop
	add	sp, sp, #36
.LCFI164:
	@ sp needed
	ldr	pc, [sp], #4
.L207:
	.align	2
.L206:
	.word	m_cb
.LFE242:
	.size	nrf_drv_gpiote_in_event_enable, .-nrf_drv_gpiote_in_event_enable
	.section	.text.nrf_drv_gpiote_in_event_disable,"ax",%progbits
	.align	1
	.global	nrf_drv_gpiote_in_event_disable
	.syntax unified
	.thumb
	.thumb_func
	.fpu fpv4-sp-d16
	.type	nrf_drv_gpiote_in_event_disable, %function
nrf_drv_gpiote_in_event_disable:
.LFB243:
	.loc 4 593 1
	@ args = 0, pretend = 0, frame = 16
	@ frame_needed = 0, uses_anonymous_args = 0
	push	{lr}
.LCFI165:
	sub	sp, sp, #20
.LCFI166:
	str	r0, [sp, #4]
	.loc 4 596 9
	ldr	r0, [sp, #4]
	bl	pin_in_use_by_port
	mov	r3, r0
	.loc 4 596 8
	cmp	r3, #0
	beq	.L209
	.loc 4 598 9
	movs	r1, #0
	ldr	r0, [sp, #4]
	bl	nrf_gpio_cfg_sense_set
	.loc 4 606 1
	b	.L211
.L209:
	.loc 4 600 14
	ldr	r0, [sp, #4]
	bl	pin_in_use_by_te
	mov	r3, r0
	.loc 4 600 13
	cmp	r3, #0
	beq	.L211
.LBB7:
	.loc 4 602 36
	ldr	r0, [sp, #4]
	bl	channel_port_get
	mov	r3, r0
	.loc 4 602 17
	str	r3, [sp, #12]
	.loc 4 603 9
	ldr	r3, [sp, #12]
	mov	r0, r3
	bl	nrf_gpiote_event_disable
	.loc 4 604 34
	movs	r2, #1
	ldr	r3, [sp, #12]
	lsl	r3, r2, r3
	.loc 4 604 9
	mov	r0, r3
	bl	nrf_gpiote_int_disable
.L211:
.LBE7:
	.loc 4 606 1
	nop
	add	sp, sp, #20
.LCFI167:
	@ sp needed
	ldr	pc, [sp], #4
.LFE243:
	.size	nrf_drv_gpiote_in_event_disable, .-nrf_drv_gpiote_in_event_disable
	.section	.text.nrf_drv_gpiote_in_uninit,"ax",%progbits
	.align	1
	.global	nrf_drv_gpiote_in_uninit
	.syntax unified
	.thumb
	.thumb_func
	.fpu fpv4-sp-d16
	.type	nrf_drv_gpiote_in_uninit, %function
nrf_drv_gpiote_in_uninit:
.LFB244:
	.loc 4 610 1
	@ args = 0, pretend = 0, frame = 8
	@ frame_needed = 0, uses_anonymous_args = 0
	push	{lr}
.LCFI168:
	sub	sp, sp, #12
.LCFI169:
	str	r0, [sp, #4]
	.loc 4 613 5
	ldr	r0, [sp, #4]
	bl	nrf_drv_gpiote_in_event_disable
	.loc 4 614 9
	ldr	r0, [sp, #4]
	bl	pin_in_use_by_te
	mov	r3, r0
	.loc 4 614 8
	cmp	r3, #0
	beq	.L213
	.loc 4 616 31
	ldr	r0, [sp, #4]
	bl	channel_port_get
	mov	r3, r0
	.loc 4 616 9
	mov	r0, r3
	bl	nrf_gpiote_te_default
.L213:
	.loc 4 618 5
	ldr	r0, [sp, #4]
	bl	nrf_gpio_cfg_default
	.loc 4 619 27
	ldr	r0, [sp, #4]
	bl	channel_port_get
	mov	r3, r0
	.loc 4 619 5
	uxtb	r3, r3
	mov	r0, r3
	bl	channel_free
	.loc 4 620 5
	ldr	r0, [sp, #4]
	bl	pin_in_use_clear
	.loc 4 621 1
	nop
	add	sp, sp, #12
.LCFI170:
	@ sp needed
	ldr	pc, [sp], #4
.LFE244:
	.size	nrf_drv_gpiote_in_uninit, .-nrf_drv_gpiote_in_uninit
	.section	.text.nrf_drv_gpiote_in_is_set,"ax",%progbits
	.align	1
	.global	nrf_drv_gpiote_in_is_set
	.syntax unified
	.thumb
	.thumb_func
	.fpu fpv4-sp-d16
	.type	nrf_drv_gpiote_in_is_set, %function
nrf_drv_gpiote_in_is_set:
.LFB245:
	.loc 4 625 1
	@ args = 0, pretend = 0, frame = 8
	@ frame_needed = 0, uses_anonymous_args = 0
	push	{lr}
.LCFI171:
	sub	sp, sp, #12
.LCFI172:
	str	r0, [sp, #4]
	.loc 4 627 12
	ldr	r0, [sp, #4]
	bl	nrf_gpio_pin_read
	mov	r3, r0
	.loc 4 627 42
	cmp	r3, #0
	ite	ne
	movne	r3, #1
	moveq	r3, #0
	uxtb	r3, r3
	.loc 4 628 1
	mov	r0, r3
	add	sp, sp, #12
.LCFI173:
	@ sp needed
	ldr	pc, [sp], #4
.LFE245:
	.size	nrf_drv_gpiote_in_is_set, .-nrf_drv_gpiote_in_is_set
	.section	.text.nrf_drv_gpiote_in_event_addr_get,"ax",%progbits
	.align	1
	.global	nrf_drv_gpiote_in_event_addr_get
	.syntax unified
	.thumb
	.thumb_func
	.fpu fpv4-sp-d16
	.type	nrf_drv_gpiote_in_event_addr_get, %function
nrf_drv_gpiote_in_event_addr_get:
.LFB246:
	.loc 4 632 1
	@ args = 0, pretend = 0, frame = 16
	@ frame_needed = 0, uses_anonymous_args = 0
	push	{lr}
.LCFI174:
	sub	sp, sp, #20
.LCFI175:
	str	r0, [sp, #4]
	.loc 4 636 25
	mov	r3, #380
	strh	r3, [sp, #14]	@ movhi
	.loc 4 638 9
	ldr	r0, [sp, #4]
	bl	pin_in_use_by_te
	mov	r3, r0
	.loc 4 638 8
	cmp	r3, #0
	beq	.L217
	.loc 4 640 17
	ldr	r0, [sp, #4]
	bl	channel_port_get
	mov	r3, r0
	uxth	r3, r3
	adds	r3, r3, #64
	uxth	r3, r3
	.loc 4 640 15
	lsls	r3, r3, #2
	strh	r3, [sp, #14]	@ movhi
.L217:
	.loc 4 642 12
	ldrh	r3, [sp, #14]
	mov	r0, r3
	bl	nrf_gpiote_event_addr_get
	mov	r3, r0
	.loc 4 643 1
	mov	r0, r3
	add	sp, sp, #20
.LCFI176:
	@ sp needed
	ldr	pc, [sp], #4
.LFE246:
	.size	nrf_drv_gpiote_in_event_addr_get, .-nrf_drv_gpiote_in_event_addr_get
	.section	.text.GPIOTE_IRQHandler,"ax",%progbits
	.align	1
	.global	GPIOTE_IRQHandler
	.syntax unified
	.thumb
	.thumb_func
	.fpu fpv4-sp-d16
	.type	GPIOTE_IRQHandler, %function
GPIOTE_IRQHandler:
.LFB247:
	.loc 4 647 1
	@ args = 0, pretend = 0, frame = 80
	@ frame_needed = 0, uses_anonymous_args = 0
	push	{lr}
.LCFI177:
	sub	sp, sp, #84
.LCFI178:
	.loc 4 648 14
	movs	r3, #0
	str	r3, [sp, #76]
	.loc 4 649 14
	movs	r3, #0
	str	r3, [sp, #12]
	.loc 4 653 25
	mov	r3, #256
	strh	r3, [sp, #70]	@ movhi
	.loc 4 654 25
	movs	r3, #1
	str	r3, [sp, #64]
	.loc 4 656 12
	movs	r3, #0
	str	r3, [sp, #72]
	.loc 4 656 5
	b	.L220
.L222:
	.loc 4 658 13
	ldrh	r3, [sp, #70]
	mov	r0, r3
	bl	nrf_gpiote_event_is_set
	mov	r3, r0
	.loc 4 658 12
	cmp	r3, #0
	beq	.L221
	.loc 4 658 47 discriminator 1
	ldr	r0, [sp, #64]
	bl	nrf_gpiote_int_is_enabled
	mov	r3, r0
	.loc 4 658 44 discriminator 1
	cmp	r3, #0
	beq	.L221
	.loc 4 660 13
	ldrh	r3, [sp, #70]
	mov	r0, r3
	bl	nrf_gpiote_event_clear
	.loc 4 661 20
	ldr	r2, [sp, #76]
	ldr	r3, [sp, #64]
	orrs	r3, r3, r2
	str	r3, [sp, #76]
.L221:
	.loc 4 663 14 discriminator 2
	ldr	r3, [sp, #64]
	lsls	r3, r3, #1
	str	r3, [sp, #64]
	.loc 4 666 15 discriminator 2
	ldrh	r3, [sp, #70]	@ movhi
	adds	r3, r3, #4
	strh	r3, [sp, #70]	@ movhi
	.loc 4 656 37 discriminator 2
	ldr	r3, [sp, #72]
	adds	r3, r3, #1
	str	r3, [sp, #72]
.L220:
	.loc 4 656 5 discriminator 1
	ldr	r3, [sp, #72]
	cmp	r3, #7
	bls	.L222
	.loc 4 671 9
	mov	r0, #380
	bl	nrf_gpiote_event_is_set
	mov	r3, r0
	.loc 4 671 8
	cmp	r3, #0
	beq	.L223
	.loc 4 673 9
	mov	r0, #380
	bl	nrf_gpiote_event_clear
	.loc 4 674 16
	ldr	r3, [sp, #76]
	orr	r3, r3, #-2147483648
	str	r3, [sp, #76]
	.loc 4 675 9
	add	r3, sp, #12
	mov	r2, r3
	movs	r1, #1
	movs	r0, #0
	bl	nrf_gpio_ports_read
.L223:
	.loc 4 679 16
	ldr	r3, [sp, #76]
	uxtb	r3, r3
	.loc 4 679 8
	cmp	r3, #0
	beq	.L224
	.loc 4 681 14
	movs	r3, #1
	str	r3, [sp, #64]
	.loc 4 683 16
	movs	r3, #0
	str	r3, [sp, #72]
	.loc 4 683 9
	b	.L225
.L227:
	.loc 4 685 22
	ldr	r2, [sp, #64]
	ldr	r3, [sp, #76]
	ands	r3, r3, r2
	.loc 4 685 16
	cmp	r3, #0
	beq	.L226
.LBB8:
	.loc 4 687 44
	ldr	r0, [sp, #72]
	bl	nrf_gpiote_event_pin_get
	str	r0, [sp, #52]
	.loc 4 689 57
	ldr	r0, [sp, #72]
	bl	nrf_gpiote_event_polarity_get
	mov	r3, r0
	strb	r3, [sp, #51]
	.loc 4 690 57
	ldr	r0, [sp, #72]
	bl	channel_handler_get
	str	r0, [sp, #44]
	.loc 4 692 20
	ldr	r3, [sp, #44]
	cmp	r3, #0
	beq	.L226
	.loc 4 694 21
	ldrb	r2, [sp, #51]	@ zero_extendqisi2
	ldr	r3, [sp, #44]
	mov	r1, r2
	ldr	r0, [sp, #52]
	blx	r3
.LVL0:
.L226:
.LBE8:
	.loc 4 697 18 discriminator 2
	ldr	r3, [sp, #64]
	lsls	r3, r3, #1
	str	r3, [sp, #64]
	.loc 4 683 41 discriminator 2
	ldr	r3, [sp, #72]
	adds	r3, r3, #1
	str	r3, [sp, #72]
.L225:
	.loc 4 683 9 discriminator 1
	ldr	r3, [sp, #72]
	cmp	r3, #7
	bls	.L227
.L224:
	.loc 4 701 9
	ldr	r3, [sp, #76]
	.loc 4 701 8
	cmp	r3, #0
	bge	.L251
.LBB9:
	.loc 4 705 18
	movs	r3, #0
	strb	r3, [sp, #59]
	.loc 4 706 18
	movs	r3, #0
	str	r3, [sp, #8]
	.loc 4 710 23
	movs	r3, #0
	str	r3, [sp, #60]
	.loc 4 710 9
	b	.L229
.L230:
	.loc 4 712 37 discriminator 3
	ldr	r3, [sp, #60]
	lsls	r3, r3, #2
	adds	r3, r3, #80
	add	r3, sp, r3
	mov	r2, #-1
	str	r2, [r3, #-76]
	.loc 4 710 59 discriminator 3
	ldr	r3, [sp, #60]
	adds	r3, r3, #1
	str	r3, [sp, #60]
.L229:
	.loc 4 710 9 discriminator 1
	ldr	r3, [sp, #60]
	cmp	r3, #0
	beq	.L230
.L250:
	.loc 4 717 20
	movs	r3, #0
	strb	r3, [sp, #59]
	.loc 4 719 20
	movs	r3, #0
	str	r3, [sp, #72]
	.loc 4 719 13
	b	.L231
.L240:
.LBB10:
	.loc 4 721 77
	ldr	r2, .L252
	ldr	r3, [sp, #72]
	add	r3, r3, r2
	adds	r3, r3, #80
	ldrsb	r3, [r3]
	.loc 4 721 38
	strb	r3, [sp, #43]
	.loc 4 722 69
	ldrb	r3, [sp, #43]	@ zero_extendqisi2
	.loc 4 722 38
	bic	r3, r3, #192
	str	r3, [sp, #36]
	.loc 4 724 45
	ldr	r2, .L252
	ldr	r3, [sp, #72]
	add	r3, r3, r2
	adds	r3, r3, #80
	ldrsb	r3, [r3]
	.loc 4 724 20
	cmp	r3, #-1
	beq	.L232
	.loc 4 725 24
	add	r3, sp, #4
	mov	r1, r3
	ldr	r0, [sp, #36]
	bl	nrf_bitmask_bit_is_set
	mov	r3, r0
	.loc 4 725 21
	cmp	r3, #0
	beq	.L232
.LBB11:
	.loc 4 727 43
	ldrb	r3, [sp, #43]	@ zero_extendqisi2
	lsrs	r3, r3, #6
	strb	r3, [sp, #35]
	.loc 4 731 45
	ldr	r0, [sp, #36]
	bl	channel_port_get
	mov	r3, r0
	.loc 4 731 25
	mov	r0, r3
	bl	channel_handler_get
	str	r0, [sp, #28]
	.loc 4 732 24
	ldr	r3, [sp, #28]
	cmp	r3, #0
	bne	.L233
	.loc 4 732 33 discriminator 1
	ldrb	r3, [sp, #35]	@ zero_extendqisi2
	cmp	r3, #3
	bne	.L232
.L233:
.LBB12:
	.loc 4 734 28
	ldrb	r3, [sp, #35]	@ zero_extendqisi2
	cmp	r3, #3
	bne	.L234
	.loc 4 736 29
	add	r3, sp, #8
	mov	r1, r3
	ldr	r0, [sp, #36]
	bl	nrf_bitmask_bit_set
.L234:
	.loc 4 738 58
	ldr	r0, [sp, #36]
	bl	nrf_gpio_pin_sense_get
	mov	r3, r0
	strb	r3, [sp, #27]
	.loc 4 739 58
	add	r3, sp, #12
	mov	r1, r3
	ldr	r0, [sp, #36]
	bl	nrf_bitmask_bit_is_set
	str	r0, [sp, #20]
	.loc 4 740 28
	ldr	r3, [sp, #20]
	cmp	r3, #0
	beq	.L235
	.loc 4 740 40 discriminator 1
	ldrb	r3, [sp, #27]	@ zero_extendqisi2
	cmp	r3, #2
	beq	.L236
.L235:
	.loc 4 740 79 discriminator 3
	ldr	r3, [sp, #20]
	cmp	r3, #0
	bne	.L232
	.loc 4 741 41
	ldrb	r3, [sp, #27]	@ zero_extendqisi2
	cmp	r3, #3
	bne	.L232
.L236:
	.loc 4 745 32
	ldrb	r3, [sp, #35]	@ zero_extendqisi2
	cmp	r3, #3
	bne	.L237
.LBB13:
	.loc 4 749 60
	ldrb	r3, [sp, #27]	@ zero_extendqisi2
	cmp	r3, #2
	bne	.L238
	.loc 4 749 60 is_stmt 0 discriminator 1
	movs	r3, #3
	b	.L239
.L238:
	.loc 4 749 60 discriminator 2
	movs	r3, #2
.L239:
	.loc 4 747 54 is_stmt 1
	strb	r3, [sp, #19]
	.loc 4 751 33
	ldrb	r3, [sp, #19]	@ zero_extendqisi2
	mov	r1, r3
	ldr	r0, [sp, #36]
	bl	nrf_gpio_cfg_sense_set
	.loc 4 752 33
	ldrb	r3, [sp, #59]
	adds	r3, r3, #1
	strb	r3, [sp, #59]
.L237:
.LBE13:
	.loc 4 755 32
	ldr	r3, [sp, #28]
	cmp	r3, #0
	beq	.L232
	.loc 4 757 33
	ldrb	r2, [sp, #35]	@ zero_extendqisi2
	ldr	r3, [sp, #28]
	mov	r1, r2
	ldr	r0, [sp, #36]
	blx	r3
.LVL1:
.L232:
.LBE12:
.LBE11:
.LBE10:
	.loc 4 719 69 discriminator 2
	ldr	r3, [sp, #72]
	adds	r3, r3, #1
	str	r3, [sp, #72]
.L231:
	.loc 4 719 13 discriminator 1
	ldr	r3, [sp, #72]
	cmp	r3, #3
	bls	.L240
	.loc 4 764 16
	ldrb	r3, [sp, #59]	@ zero_extendqisi2
	cmp	r3, #0
	beq	.L241
.LBB14:
	.loc 4 773 26
	movs	r3, #1
	strb	r3, [sp, #58]
	.loc 4 774 17
	mov	r3, sp
	mov	r2, r3
	movs	r1, #1
	movs	r0, #0
	bl	nrf_gpio_ports_read
	.loc 4 777 31
	movs	r3, #0
	str	r3, [sp, #60]
	.loc 4 777 17
	b	.L242
.L245:
	.loc 4 779 34
	ldr	r3, [sp, #60]
	lsls	r3, r3, #2
	adds	r3, r3, #80
	add	r3, sp, r3
	ldr	r2, [r3, #-80]
	.loc 4 779 53
	ldr	r3, [sp, #60]
	lsls	r3, r3, #2
	adds	r3, r3, #80
	add	r3, sp, r3
	ldr	r3, [r3, #-68]
	.loc 4 779 24
	cmp	r2, r3
	beq	.L243
	.loc 4 781 41
	movs	r3, #0
	strb	r3, [sp, #58]
	.loc 4 782 25
	b	.L244
.L243:
	.loc 4 777 67 discriminator 2
	ldr	r3, [sp, #60]
	adds	r3, r3, #1
	str	r3, [sp, #60]
.L242:
	.loc 4 777 17 discriminator 1
	ldr	r3, [sp, #60]
	cmp	r3, #0
	beq	.L245
.L244:
	.loc 4 786 20
	ldrb	r3, [sp, #58]	@ zero_extendqisi2
	cmp	r3, #0
	beq	.L246
	.loc 4 789 28
	movs	r3, #0
	strb	r3, [sp, #59]
	b	.L241
.L246:
	.loc 4 794 35
	movs	r3, #0
	str	r3, [sp, #60]
	.loc 4 794 21
	b	.L248
.L249:
	.loc 4 796 60 discriminator 3
	ldr	r3, [sp, #60]
	lsls	r3, r3, #2
	adds	r3, r3, #80
	add	r3, sp, r3
	ldr	r2, [r3, #-80]
	.loc 4 796 49 discriminator 3
	ldr	r3, [sp, #60]
	lsls	r3, r3, #2
	adds	r3, r3, #80
	add	r3, sp, r3
	str	r2, [r3, #-68]
	.loc 4 797 62 discriminator 3
	ldr	r3, [sp, #60]
	lsls	r3, r3, #2
	adds	r3, r3, #80
	add	r3, sp, r3
	ldr	r2, [r3, #-72]
	.loc 4 797 49 discriminator 3
	ldr	r3, [sp, #60]
	lsls	r3, r3, #2
	adds	r3, r3, #80
	add	r3, sp, r3
	str	r2, [r3, #-76]
	.loc 4 794 71 discriminator 3
	ldr	r3, [sp, #60]
	adds	r3, r3, #1
	str	r3, [sp, #60]
.L248:
	.loc 4 794 21 discriminator 1
	ldr	r3, [sp, #60]
	cmp	r3, #0
	beq	.L249
.L241:
.LBE14:
	.loc 4 802 9
	ldrb	r3, [sp, #59]	@ zero_extendqisi2
	cmp	r3, #0
	bne	.L250
.L251:
.LBE9:
	.loc 4 804 1
	nop
	add	sp, sp, #84
.LCFI179:
	@ sp needed
	ldr	pc, [sp], #4
.L253:
	.align	2
.L252:
	.word	m_cb
.LFE247:
	.size	GPIOTE_IRQHandler, .-GPIOTE_IRQHandler
	.section	.debug_frame,"",%progbits
.Lframe0:
	.4byte	.LECIE0-.LSCIE0
.LSCIE0:
	.4byte	0xffffffff
	.byte	0x3
	.ascii	"\000"
	.uleb128 0x1
	.sleb128 -4
	.uleb128 0xe
	.byte	0xc
	.uleb128 0xd
	.uleb128 0
	.align	2
.LECIE0:
.LSFDE0:
	.4byte	.LEFDE0-.LASFDE0
.LASFDE0:
	.4byte	.Lframe0
	.4byte	.LFB150
	.4byte	.LFE150-.LFB150
	.byte	0x4
	.4byte	.LCFI0-.LFB150
	.byte	0xe
	.uleb128 0x8
	.byte	0x4
	.4byte	.LCFI1-.LCFI0
	.byte	0xe
	.uleb128 0
	.align	2
.LEFDE0:
.LSFDE2:
	.4byte	.LEFDE2-.LASFDE2
.LASFDE2:
	.4byte	.Lframe0
	.4byte	.LFB151
	.4byte	.LFE151-.LFB151
	.byte	0x4
	.4byte	.LCFI2-.LFB151
	.byte	0xe
	.uleb128 0x8
	.byte	0x4
	.4byte	.LCFI3-.LCFI2
	.byte	0xe
	.uleb128 0
	.align	2
.LEFDE2:
.LSFDE4:
	.4byte	.LEFDE4-.LASFDE4
.LASFDE4:
	.4byte	.Lframe0
	.4byte	.LFB152
	.4byte	.LFE152-.LFB152
	.byte	0x4
	.4byte	.LCFI4-.LFB152
	.byte	0xe
	.uleb128 0x4
	.byte	0x8e
	.uleb128 0x1
	.byte	0x4
	.4byte	.LCFI5-.LCFI4
	.byte	0xe
	.uleb128 0x10
	.byte	0x4
	.4byte	.LCFI6-.LCFI5
	.byte	0xe
	.uleb128 0x4
	.align	2
.LEFDE4:
.LSFDE6:
	.4byte	.LEFDE6-.LASFDE6
.LASFDE6:
	.4byte	.Lframe0
	.4byte	.LFB153
	.4byte	.LFE153-.LFB153
	.byte	0x4
	.4byte	.LCFI7-.LFB153
	.byte	0xe
	.uleb128 0x4
	.byte	0x8e
	.uleb128 0x1
	.byte	0x4
	.4byte	.LCFI8-.LCFI7
	.byte	0xe
	.uleb128 0x18
	.byte	0x4
	.4byte	.LCFI9-.LCFI8
	.byte	0xe
	.uleb128 0x4
	.align	2
.LEFDE6:
.LSFDE8:
	.4byte	.LEFDE8-.LASFDE8
.LASFDE8:
	.4byte	.Lframe0
	.4byte	.LFB154
	.4byte	.LFE154-.LFB154
	.byte	0x4
	.4byte	.LCFI10-.LFB154
	.byte	0xe
	.uleb128 0x8
	.byte	0x4
	.4byte	.LCFI11-.LCFI10
	.byte	0xe
	.uleb128 0
	.align	2
.LEFDE8:
.LSFDE10:
	.4byte	.LEFDE10-.LASFDE10
.LASFDE10:
	.4byte	.Lframe0
	.4byte	.LFB155
	.4byte	.LFE155-.LFB155
	.byte	0x4
	.4byte	.LCFI12-.LFB155
	.byte	0xe
	.uleb128 0x8
	.byte	0x4
	.4byte	.LCFI13-.LCFI12
	.byte	0xe
	.uleb128 0
	.align	2
.LEFDE10:
.LSFDE12:
	.4byte	.LEFDE12-.LASFDE12
.LASFDE12:
	.4byte	.Lframe0
	.4byte	.LFB156
	.4byte	.LFE156-.LFB156
	.byte	0x4
	.4byte	.LCFI14-.LFB156
	.byte	0xe
	.uleb128 0x8
	.byte	0x4
	.4byte	.LCFI15-.LCFI14
	.byte	0xe
	.uleb128 0
	.align	2
.LEFDE12:
.LSFDE14:
	.4byte	.LEFDE14-.LASFDE14
.LASFDE14:
	.4byte	.Lframe0
	.4byte	.LFB157
	.4byte	.LFE157-.LFB157
	.byte	0x4
	.4byte	.LCFI16-.LFB157
	.byte	0xe
	.uleb128 0x8
	.byte	0x4
	.4byte	.LCFI17-.LCFI16
	.byte	0xe
	.uleb128 0
	.align	2
.LEFDE14:
.LSFDE16:
	.4byte	.LEFDE16-.LASFDE16
.LASFDE16:
	.4byte	.Lframe0
	.4byte	.LFB158
	.4byte	.LFE158-.LFB158
	.byte	0x4
	.4byte	.LCFI18-.LFB158
	.byte	0xe
	.uleb128 0x8
	.byte	0x4
	.4byte	.LCFI19-.LCFI18
	.byte	0xe
	.uleb128 0
	.align	2
.LEFDE16:
.LSFDE18:
	.4byte	.LEFDE18-.LASFDE18
.LASFDE18:
	.4byte	.Lframe0
	.4byte	.LFB159
	.4byte	.LFE159-.LFB159
	.byte	0x4
	.4byte	.LCFI20-.LFB159
	.byte	0xe
	.uleb128 0x8
	.byte	0x4
	.4byte	.LCFI21-.LCFI20
	.byte	0xe
	.uleb128 0
	.align	2
.LEFDE18:
.LSFDE20:
	.4byte	.LEFDE20-.LASFDE20
.LASFDE20:
	.4byte	.Lframe0
	.4byte	.LFB160
	.4byte	.LFE160-.LFB160
	.byte	0x4
	.4byte	.LCFI22-.LFB160
	.byte	0xe
	.uleb128 0x10
	.byte	0x4
	.4byte	.LCFI23-.LCFI22
	.byte	0xe
	.uleb128 0
	.align	2
.LEFDE20:
.LSFDE22:
	.4byte	.LEFDE22-.LASFDE22
.LASFDE22:
	.4byte	.Lframe0
	.4byte	.LFB161
	.4byte	.LFE161-.LFB161
	.byte	0x4
	.4byte	.LCFI24-.LFB161
	.byte	0xe
	.uleb128 0x8
	.byte	0x4
	.4byte	.LCFI25-.LCFI24
	.byte	0xe
	.uleb128 0
	.align	2
.LEFDE22:
.LSFDE24:
	.4byte	.LEFDE24-.LASFDE24
.LASFDE24:
	.4byte	.Lframe0
	.4byte	.LFB162
	.4byte	.LFE162-.LFB162
	.byte	0x4
	.4byte	.LCFI26-.LFB162
	.byte	0xe
	.uleb128 0x8
	.byte	0x4
	.4byte	.LCFI27-.LCFI26
	.byte	0xe
	.uleb128 0
	.align	2
.LEFDE24:
.LSFDE26:
	.4byte	.LEFDE26-.LASFDE26
.LASFDE26:
	.4byte	.Lframe0
	.4byte	.LFB163
	.4byte	.LFE163-.LFB163
	.byte	0x4
	.4byte	.LCFI28-.LFB163
	.byte	0xe
	.uleb128 0x10
	.byte	0x4
	.4byte	.LCFI29-.LCFI28
	.byte	0xe
	.uleb128 0
	.align	2
.LEFDE26:
.LSFDE28:
	.4byte	.LEFDE28-.LASFDE28
.LASFDE28:
	.4byte	.Lframe0
	.4byte	.LFB164
	.4byte	.LFE164-.LFB164
	.byte	0x4
	.4byte	.LCFI30-.LFB164
	.byte	0xe
	.uleb128 0x8
	.byte	0x4
	.4byte	.LCFI31-.LCFI30
	.byte	0xe
	.uleb128 0
	.align	2
.LEFDE28:
.LSFDE30:
	.4byte	.LEFDE30-.LASFDE30
.LASFDE30:
	.4byte	.Lframe0
	.4byte	.LFB165
	.4byte	.LFE165-.LFB165
	.byte	0x4
	.4byte	.LCFI32-.LFB165
	.byte	0xe
	.uleb128 0x10
	.byte	0x4
	.4byte	.LCFI33-.LCFI32
	.byte	0xe
	.uleb128 0
	.align	2
.LEFDE30:
.LSFDE32:
	.4byte	.LEFDE32-.LASFDE32
.LASFDE32:
	.4byte	.Lframe0
	.4byte	.LFB166
	.4byte	.LFE166-.LFB166
	.byte	0x4
	.4byte	.LCFI34-.LFB166
	.byte	0xe
	.uleb128 0x8
	.byte	0x4
	.4byte	.LCFI35-.LCFI34
	.byte	0xe
	.uleb128 0
	.align	2
.LEFDE32:
.LSFDE34:
	.4byte	.LEFDE34-.LASFDE34
.LASFDE34:
	.4byte	.Lframe0
	.4byte	.LFB167
	.4byte	.LFE167-.LFB167
	.byte	0x4
	.4byte	.LCFI36-.LFB167
	.byte	0xe
	.uleb128 0x8
	.byte	0x4
	.4byte	.LCFI37-.LCFI36
	.byte	0xe
	.uleb128 0
	.align	2
.LEFDE34:
.LSFDE36:
	.4byte	.LEFDE36-.LASFDE36
.LASFDE36:
	.4byte	.Lframe0
	.4byte	.LFB168
	.4byte	.LFE168-.LFB168
	.byte	0x4
	.4byte	.LCFI38-.LFB168
	.byte	0xe
	.uleb128 0x8
	.byte	0x4
	.4byte	.LCFI39-.LCFI38
	.byte	0xe
	.uleb128 0
	.align	2
.LEFDE36:
.LSFDE38:
	.4byte	.LEFDE38-.LASFDE38
.LASFDE38:
	.4byte	.Lframe0
	.4byte	.LFB171
	.4byte	.LFE171-.LFB171
	.byte	0x4
	.4byte	.LCFI40-.LFB171
	.byte	0xe
	.uleb128 0x4
	.byte	0x8e
	.uleb128 0x1
	.byte	0x4
	.4byte	.LCFI41-.LCFI40
	.byte	0xe
	.uleb128 0x18
	.byte	0x4
	.4byte	.LCFI42-.LCFI41
	.byte	0xe
	.uleb128 0x4
	.align	2
.LEFDE38:
.LSFDE40:
	.4byte	.LEFDE40-.LASFDE40
.LASFDE40:
	.4byte	.Lframe0
	.4byte	.LFB172
	.4byte	.LFE172-.LFB172
	.byte	0x4
	.4byte	.LCFI43-.LFB172
	.byte	0xe
	.uleb128 0x4
	.byte	0x8e
	.uleb128 0x1
	.byte	0x4
	.4byte	.LCFI44-.LCFI43
	.byte	0xe
	.uleb128 0x18
	.byte	0x4
	.4byte	.LCFI45-.LCFI44
	.byte	0xe
	.uleb128 0x4
	.align	2
.LEFDE40:
.LSFDE42:
	.4byte	.LEFDE42-.LASFDE42
.LASFDE42:
	.4byte	.Lframe0
	.4byte	.LFB173
	.4byte	.LFE173-.LFB173
	.byte	0x4
	.4byte	.LCFI46-.LFB173
	.byte	0xe
	.uleb128 0x4
	.byte	0x8e
	.uleb128 0x1
	.byte	0x4
	.4byte	.LCFI47-.LCFI46
	.byte	0xe
	.uleb128 0x18
	.byte	0x4
	.4byte	.LCFI48-.LCFI47
	.byte	0xe
	.uleb128 0x4
	.align	2
.LEFDE42:
.LSFDE44:
	.4byte	.LEFDE44-.LASFDE44
.LASFDE44:
	.4byte	.Lframe0
	.4byte	.LFB174
	.4byte	.LFE174-.LFB174
	.byte	0x4
	.4byte	.LCFI49-.LFB174
	.byte	0xe
	.uleb128 0x4
	.byte	0x8e
	.uleb128 0x1
	.byte	0x4
	.4byte	.LCFI50-.LCFI49
	.byte	0xe
	.uleb128 0x18
	.byte	0x4
	.4byte	.LCFI51-.LCFI50
	.byte	0xe
	.uleb128 0x4
	.align	2
.LEFDE44:
.LSFDE46:
	.4byte	.LEFDE46-.LASFDE46
.LASFDE46:
	.4byte	.Lframe0
	.4byte	.LFB175
	.4byte	.LFE175-.LFB175
	.byte	0x4
	.4byte	.LCFI52-.LFB175
	.byte	0xe
	.uleb128 0x4
	.byte	0x8e
	.uleb128 0x1
	.byte	0x4
	.4byte	.LCFI53-.LCFI52
	.byte	0xe
	.uleb128 0x18
	.byte	0x4
	.4byte	.LCFI54-.LCFI53
	.byte	0xe
	.uleb128 0x4
	.align	2
.LEFDE46:
.LSFDE48:
	.4byte	.LEFDE48-.LASFDE48
.LASFDE48:
	.4byte	.Lframe0
	.4byte	.LFB178
	.4byte	.LFE178-.LFB178
	.byte	0x4
	.4byte	.LCFI55-.LFB178
	.byte	0xe
	.uleb128 0x4
	.byte	0x8e
	.uleb128 0x1
	.byte	0x4
	.4byte	.LCFI56-.LCFI55
	.byte	0xe
	.uleb128 0x18
	.byte	0x4
	.4byte	.LCFI57-.LCFI56
	.byte	0xe
	.uleb128 0x4
	.align	2
.LEFDE48:
.LSFDE50:
	.4byte	.LEFDE50-.LASFDE50
.LASFDE50:
	.4byte	.Lframe0
	.4byte	.LFB180
	.4byte	.LFE180-.LFB180
	.byte	0x4
	.4byte	.LCFI58-.LFB180
	.byte	0xe
	.uleb128 0x4
	.byte	0x8e
	.uleb128 0x1
	.byte	0x4
	.4byte	.LCFI59-.LCFI58
	.byte	0xe
	.uleb128 0x18
	.byte	0x4
	.4byte	.LCFI60-.LCFI59
	.byte	0xe
	.uleb128 0x4
	.align	2
.LEFDE50:
.LSFDE52:
	.4byte	.LEFDE52-.LASFDE52
.LASFDE52:
	.4byte	.Lframe0
	.4byte	.LFB181
	.4byte	.LFE181-.LFB181
	.byte	0x4
	.4byte	.LCFI61-.LFB181
	.byte	0xe
	.uleb128 0x4
	.byte	0x8e
	.uleb128 0x1
	.byte	0x4
	.4byte	.LCFI62-.LCFI61
	.byte	0xe
	.uleb128 0x18
	.byte	0x4
	.4byte	.LCFI63-.LCFI62
	.byte	0xe
	.uleb128 0x4
	.align	2
.LEFDE52:
.LSFDE54:
	.4byte	.LEFDE54-.LASFDE54
.LASFDE54:
	.4byte	.Lframe0
	.4byte	.LFB182
	.4byte	.LFE182-.LFB182
	.byte	0x4
	.4byte	.LCFI64-.LFB182
	.byte	0xe
	.uleb128 0x4
	.byte	0x8e
	.uleb128 0x1
	.byte	0x4
	.4byte	.LCFI65-.LCFI64
	.byte	0xe
	.uleb128 0x18
	.byte	0x4
	.4byte	.LCFI66-.LCFI65
	.byte	0xe
	.uleb128 0x4
	.align	2
.LEFDE54:
.LSFDE56:
	.4byte	.LEFDE56-.LASFDE56
.LASFDE56:
	.4byte	.Lframe0
	.4byte	.LFB184
	.4byte	.LFE184-.LFB184
	.byte	0x4
	.4byte	.LCFI67-.LFB184
	.byte	0xe
	.uleb128 0x4
	.byte	0x8e
	.uleb128 0x1
	.byte	0x4
	.4byte	.LCFI68-.LCFI67
	.byte	0xe
	.uleb128 0x18
	.byte	0x4
	.4byte	.LCFI69-.LCFI68
	.byte	0xe
	.uleb128 0x4
	.align	2
.LEFDE56:
.LSFDE58:
	.4byte	.LEFDE58-.LASFDE58
.LASFDE58:
	.4byte	.Lframe0
	.4byte	.LFB186
	.4byte	.LFE186-.LFB186
	.byte	0x4
	.4byte	.LCFI70-.LFB186
	.byte	0xe
	.uleb128 0x4
	.byte	0x8e
	.uleb128 0x1
	.byte	0x4
	.4byte	.LCFI71-.LCFI70
	.byte	0xe
	.uleb128 0x18
	.byte	0x4
	.4byte	.LCFI72-.LCFI71
	.byte	0xe
	.uleb128 0x4
	.align	2
.LEFDE58:
.LSFDE60:
	.4byte	.LEFDE60-.LASFDE60
.LASFDE60:
	.4byte	.Lframe0
	.4byte	.LFB191
	.4byte	.LFE191-.LFB191
	.byte	0x4
	.4byte	.LCFI73-.LFB191
	.byte	0xe
	.uleb128 0x8
	.byte	0x4
	.4byte	.LCFI74-.LCFI73
	.byte	0xe
	.uleb128 0
	.align	2
.LEFDE60:
.LSFDE62:
	.4byte	.LEFDE62-.LASFDE62
.LASFDE62:
	.4byte	.Lframe0
	.4byte	.LFB194
	.4byte	.LFE194-.LFB194
	.byte	0x4
	.4byte	.LCFI75-.LFB194
	.byte	0xe
	.uleb128 0x8
	.byte	0x4
	.4byte	.LCFI76-.LCFI75
	.byte	0xe
	.uleb128 0
	.align	2
.LEFDE62:
.LSFDE64:
	.4byte	.LEFDE64-.LASFDE64
.LASFDE64:
	.4byte	.Lframe0
	.4byte	.LFB195
	.4byte	.LFE195-.LFB195
	.byte	0x4
	.4byte	.LCFI77-.LFB195
	.byte	0xe
	.uleb128 0x8
	.byte	0x4
	.4byte	.LCFI78-.LCFI77
	.byte	0xe
	.uleb128 0
	.align	2
.LEFDE64:
.LSFDE66:
	.4byte	.LEFDE66-.LASFDE66
.LASFDE66:
	.4byte	.Lframe0
	.4byte	.LFB196
	.4byte	.LFE196-.LFB196
	.byte	0x4
	.4byte	.LCFI79-.LFB196
	.byte	0xe
	.uleb128 0x4
	.byte	0x8e
	.uleb128 0x1
	.byte	0x4
	.4byte	.LCFI80-.LCFI79
	.byte	0xe
	.uleb128 0x20
	.byte	0x4
	.4byte	.LCFI81-.LCFI80
	.byte	0xe
	.uleb128 0x4
	.align	2
.LEFDE66:
.LSFDE68:
	.4byte	.LEFDE68-.LASFDE68
.LASFDE68:
	.4byte	.Lframe0
	.4byte	.LFB207
	.4byte	.LFE207-.LFB207
	.byte	0x4
	.4byte	.LCFI82-.LFB207
	.byte	0xe
	.uleb128 0x10
	.byte	0x4
	.4byte	.LCFI83-.LCFI82
	.byte	0xe
	.uleb128 0
	.align	2
.LEFDE68:
.LSFDE70:
	.4byte	.LEFDE70-.LASFDE70
.LASFDE70:
	.4byte	.Lframe0
	.4byte	.LFB208
	.4byte	.LFE208-.LFB208
	.byte	0x4
	.4byte	.LCFI84-.LFB208
	.byte	0xe
	.uleb128 0x10
	.byte	0x4
	.4byte	.LCFI85-.LCFI84
	.byte	0xe
	.uleb128 0
	.align	2
.LEFDE70:
.LSFDE72:
	.4byte	.LEFDE72-.LASFDE72
.LASFDE72:
	.4byte	.Lframe0
	.4byte	.LFB212
	.4byte	.LFE212-.LFB212
	.byte	0x4
	.4byte	.LCFI86-.LFB212
	.byte	0xe
	.uleb128 0x8
	.byte	0x4
	.4byte	.LCFI87-.LCFI86
	.byte	0xe
	.uleb128 0
	.align	2
.LEFDE72:
.LSFDE74:
	.4byte	.LEFDE74-.LASFDE74
.LASFDE74:
	.4byte	.Lframe0
	.4byte	.LFB213
	.4byte	.LFE213-.LFB213
	.byte	0x4
	.4byte	.LCFI88-.LFB213
	.byte	0xe
	.uleb128 0x8
	.byte	0x4
	.4byte	.LCFI89-.LCFI88
	.byte	0xe
	.uleb128 0
	.align	2
.LEFDE74:
.LSFDE76:
	.4byte	.LEFDE76-.LASFDE76
.LASFDE76:
	.4byte	.Lframe0
	.4byte	.LFB214
	.4byte	.LFE214-.LFB214
	.byte	0x4
	.4byte	.LCFI90-.LFB214
	.byte	0xe
	.uleb128 0x8
	.byte	0x4
	.4byte	.LCFI91-.LCFI90
	.byte	0xe
	.uleb128 0
	.align	2
.LEFDE76:
.LSFDE78:
	.4byte	.LEFDE78-.LASFDE78
.LASFDE78:
	.4byte	.Lframe0
	.4byte	.LFB215
	.4byte	.LFE215-.LFB215
	.byte	0x4
	.4byte	.LCFI92-.LFB215
	.byte	0xe
	.uleb128 0x8
	.byte	0x4
	.4byte	.LCFI93-.LCFI92
	.byte	0xe
	.uleb128 0
	.align	2
.LEFDE78:
.LSFDE80:
	.4byte	.LEFDE80-.LASFDE80
.LASFDE80:
	.4byte	.Lframe0
	.4byte	.LFB216
	.4byte	.LFE216-.LFB216
	.byte	0x4
	.4byte	.LCFI94-.LFB216
	.byte	0xe
	.uleb128 0x8
	.byte	0x4
	.4byte	.LCFI95-.LCFI94
	.byte	0xe
	.uleb128 0
	.align	2
.LEFDE80:
.LSFDE82:
	.4byte	.LEFDE82-.LASFDE82
.LASFDE82:
	.4byte	.Lframe0
	.4byte	.LFB217
	.4byte	.LFE217-.LFB217
	.byte	0x4
	.4byte	.LCFI96-.LFB217
	.byte	0xe
	.uleb128 0x10
	.byte	0x4
	.4byte	.LCFI97-.LCFI96
	.byte	0xe
	.uleb128 0
	.align	2
.LEFDE82:
.LSFDE84:
	.4byte	.LEFDE84-.LASFDE84
.LASFDE84:
	.4byte	.Lframe0
	.4byte	.LFB218
	.4byte	.LFE218-.LFB218
	.byte	0x4
	.4byte	.LCFI98-.LFB218
	.byte	0xe
	.uleb128 0x8
	.byte	0x4
	.4byte	.LCFI99-.LCFI98
	.byte	0xe
	.uleb128 0
	.align	2
.LEFDE84:
.LSFDE86:
	.4byte	.LEFDE86-.LASFDE86
.LASFDE86:
	.4byte	.Lframe0
	.4byte	.LFB219
	.4byte	.LFE219-.LFB219
	.byte	0x4
	.4byte	.LCFI100-.LFB219
	.byte	0xe
	.uleb128 0x8
	.byte	0x4
	.4byte	.LCFI101-.LCFI100
	.byte	0xe
	.uleb128 0
	.align	2
.LEFDE86:
.LSFDE88:
	.4byte	.LEFDE88-.LASFDE88
.LASFDE88:
	.4byte	.Lframe0
	.4byte	.LFB220
	.4byte	.LFE220-.LFB220
	.byte	0x4
	.4byte	.LCFI102-.LFB220
	.byte	0xe
	.uleb128 0x8
	.byte	0x4
	.4byte	.LCFI103-.LCFI102
	.byte	0xe
	.uleb128 0
	.align	2
.LEFDE88:
.LSFDE90:
	.4byte	.LEFDE90-.LASFDE90
.LASFDE90:
	.4byte	.Lframe0
	.4byte	.LFB221
	.4byte	.LFE221-.LFB221
	.byte	0x4
	.4byte	.LCFI104-.LFB221
	.byte	0xe
	.uleb128 0x8
	.byte	0x4
	.4byte	.LCFI105-.LCFI104
	.byte	0xe
	.uleb128 0
	.align	2
.LEFDE90:
.LSFDE92:
	.4byte	.LEFDE92-.LASFDE92
.LASFDE92:
	.4byte	.Lframe0
	.4byte	.LFB222
	.4byte	.LFE222-.LFB222
	.byte	0x4
	.4byte	.LCFI106-.LFB222
	.byte	0xe
	.uleb128 0x4
	.byte	0x8e
	.uleb128 0x1
	.byte	0x4
	.4byte	.LCFI107-.LCFI106
	.byte	0xe
	.uleb128 0x28
	.byte	0x4
	.4byte	.LCFI108-.LCFI107
	.byte	0xe
	.uleb128 0x4
	.align	2
.LEFDE92:
.LSFDE94:
	.4byte	.LEFDE94-.LASFDE94
.LASFDE94:
	.4byte	.Lframe0
	.4byte	.LFB223
	.4byte	.LFE223-.LFB223
	.byte	0x4
	.4byte	.LCFI109-.LFB223
	.byte	0xe
	.uleb128 0x8
	.byte	0x4
	.4byte	.LCFI110-.LCFI109
	.byte	0xe
	.uleb128 0
	.align	2
.LEFDE94:
.LSFDE96:
	.4byte	.LEFDE96-.LASFDE96
.LASFDE96:
	.4byte	.Lframe0
	.4byte	.LFB224
	.4byte	.LFE224-.LFB224
	.byte	0x4
	.4byte	.LCFI111-.LFB224
	.byte	0xe
	.uleb128 0x4
	.byte	0x8e
	.uleb128 0x1
	.byte	0x4
	.4byte	.LCFI112-.LCFI111
	.byte	0xe
	.uleb128 0x10
	.byte	0x4
	.4byte	.LCFI113-.LCFI112
	.byte	0xe
	.uleb128 0x4
	.align	2
.LEFDE96:
.LSFDE98:
	.4byte	.LEFDE98-.LASFDE98
.LASFDE98:
	.4byte	.Lframe0
	.4byte	.LFB225
	.4byte	.LFE225-.LFB225
	.align	2
.LEFDE98:
.LSFDE100:
	.4byte	.LEFDE100-.LASFDE100
.LASFDE100:
	.4byte	.Lframe0
	.4byte	.LFB226
	.4byte	.LFE226-.LFB226
	.byte	0x4
	.4byte	.LCFI114-.LFB226
	.byte	0xe
	.uleb128 0x4
	.byte	0x8e
	.uleb128 0x1
	.byte	0x4
	.4byte	.LCFI115-.LCFI114
	.byte	0xe
	.uleb128 0x10
	.byte	0x4
	.4byte	.LCFI116-.LCFI115
	.byte	0xe
	.uleb128 0x4
	.align	2
.LEFDE100:
.LSFDE102:
	.4byte	.LEFDE102-.LASFDE102
.LASFDE102:
	.4byte	.Lframe0
	.4byte	.LFB227
	.4byte	.LFE227-.LFB227
	.byte	0x4
	.4byte	.LCFI117-.LFB227
	.byte	0xe
	.uleb128 0x4
	.byte	0x8e
	.uleb128 0x1
	.byte	0x4
	.4byte	.LCFI118-.LCFI117
	.byte	0xe
	.uleb128 0x18
	.byte	0x4
	.4byte	.LCFI119-.LCFI118
	.byte	0xe
	.uleb128 0x4
	.align	2
.LEFDE102:
.LSFDE104:
	.4byte	.LEFDE104-.LASFDE104
.LASFDE104:
	.4byte	.Lframe0
	.4byte	.LFB228
	.4byte	.LFE228-.LFB228
	.byte	0x4
	.4byte	.LCFI120-.LFB228
	.byte	0xe
	.uleb128 0x4
	.byte	0x8e
	.uleb128 0x1
	.byte	0x4
	.4byte	.LCFI121-.LCFI120
	.byte	0xe
	.uleb128 0x10
	.byte	0x4
	.4byte	.LCFI122-.LCFI121
	.byte	0xe
	.uleb128 0x4
	.align	2
.LEFDE104:
.LSFDE106:
	.4byte	.LEFDE106-.LASFDE106
.LASFDE106:
	.4byte	.Lframe0
	.4byte	.LFB229
	.4byte	.LFE229-.LFB229
	.byte	0x4
	.4byte	.LCFI123-.LFB229
	.byte	0xe
	.uleb128 0x4
	.byte	0x8e
	.uleb128 0x1
	.byte	0x4
	.4byte	.LCFI124-.LCFI123
	.byte	0xe
	.uleb128 0x10
	.byte	0x4
	.4byte	.LCFI125-.LCFI124
	.byte	0xe
	.uleb128 0x4
	.align	2
.LEFDE106:
.LSFDE108:
	.4byte	.LEFDE108-.LASFDE108
.LASFDE108:
	.4byte	.Lframe0
	.4byte	.LFB230
	.4byte	.LFE230-.LFB230
	.byte	0x4
	.4byte	.LCFI126-.LFB230
	.byte	0xe
	.uleb128 0x4
	.byte	0x8e
	.uleb128 0x1
	.byte	0x4
	.4byte	.LCFI127-.LCFI126
	.byte	0xe
	.uleb128 0x10
	.byte	0x4
	.4byte	.LCFI128-.LCFI127
	.byte	0xe
	.uleb128 0x4
	.align	2
.LEFDE108:
.LSFDE110:
	.4byte	.LEFDE110-.LASFDE110
.LASFDE110:
	.4byte	.Lframe0
	.4byte	.LFB231
	.4byte	.LFE231-.LFB231
	.byte	0x4
	.4byte	.LCFI129-.LFB231
	.byte	0xe
	.uleb128 0x4
	.byte	0x8e
	.uleb128 0x1
	.byte	0x4
	.4byte	.LCFI130-.LCFI129
	.byte	0xe
	.uleb128 0x10
	.byte	0x4
	.4byte	.LCFI131-.LCFI130
	.byte	0xe
	.uleb128 0x4
	.align	2
.LEFDE110:
.LSFDE112:
	.4byte	.LEFDE112-.LASFDE112
.LASFDE112:
	.4byte	.Lframe0
	.4byte	.LFB232
	.4byte	.LFE232-.LFB232
	.byte	0x4
	.4byte	.LCFI132-.LFB232
	.byte	0xe
	.uleb128 0x4
	.byte	0x8e
	.uleb128 0x1
	.byte	0x4
	.4byte	.LCFI133-.LCFI132
	.byte	0xe
	.uleb128 0x10
	.byte	0x4
	.4byte	.LCFI134-.LCFI133
	.byte	0xe
	.uleb128 0x4
	.align	2
.LEFDE112:
.LSFDE114:
	.4byte	.LEFDE114-.LASFDE114
.LASFDE114:
	.4byte	.Lframe0
	.4byte	.LFB233
	.4byte	.LFE233-.LFB233
	.byte	0x4
	.4byte	.LCFI135-.LFB233
	.byte	0xe
	.uleb128 0x4
	.byte	0x8e
	.uleb128 0x1
	.byte	0x4
	.4byte	.LCFI136-.LCFI135
	.byte	0xe
	.uleb128 0x10
	.byte	0x4
	.4byte	.LCFI137-.LCFI136
	.byte	0xe
	.uleb128 0x4
	.align	2
.LEFDE114:
.LSFDE116:
	.4byte	.LEFDE116-.LASFDE116
.LASFDE116:
	.4byte	.Lframe0
	.4byte	.LFB234
	.4byte	.LFE234-.LFB234
	.byte	0x4
	.4byte	.LCFI138-.LFB234
	.byte	0xe
	.uleb128 0x4
	.byte	0x8e
	.uleb128 0x1
	.byte	0x4
	.4byte	.LCFI139-.LCFI138
	.byte	0xe
	.uleb128 0x18
	.byte	0x4
	.4byte	.LCFI140-.LCFI139
	.byte	0xe
	.uleb128 0x4
	.align	2
.LEFDE116:
.LSFDE118:
	.4byte	.LEFDE118-.LASFDE118
.LASFDE118:
	.4byte	.Lframe0
	.4byte	.LFB235
	.4byte	.LFE235-.LFB235
	.byte	0x4
	.4byte	.LCFI141-.LFB235
	.byte	0xe
	.uleb128 0x4
	.byte	0x8e
	.uleb128 0x1
	.byte	0x4
	.4byte	.LCFI142-.LCFI141
	.byte	0xe
	.uleb128 0x18
	.byte	0x4
	.4byte	.LCFI143-.LCFI142
	.byte	0xe
	.uleb128 0x4
	.align	2
.LEFDE118:
.LSFDE120:
	.4byte	.LEFDE120-.LASFDE120
.LASFDE120:
	.4byte	.Lframe0
	.4byte	.LFB236
	.4byte	.LFE236-.LFB236
	.byte	0x4
	.4byte	.LCFI144-.LFB236
	.byte	0xe
	.uleb128 0x4
	.byte	0x8e
	.uleb128 0x1
	.byte	0x4
	.4byte	.LCFI145-.LCFI144
	.byte	0xe
	.uleb128 0x18
	.byte	0x4
	.4byte	.LCFI146-.LCFI145
	.byte	0xe
	.uleb128 0x4
	.align	2
.LEFDE120:
.LSFDE122:
	.4byte	.LEFDE122-.LASFDE122
.LASFDE122:
	.4byte	.Lframe0
	.4byte	.LFB237
	.4byte	.LFE237-.LFB237
	.byte	0x4
	.4byte	.LCFI147-.LFB237
	.byte	0xe
	.uleb128 0x4
	.byte	0x8e
	.uleb128 0x1
	.byte	0x4
	.4byte	.LCFI148-.LCFI147
	.byte	0xe
	.uleb128 0x18
	.byte	0x4
	.4byte	.LCFI149-.LCFI148
	.byte	0xe
	.uleb128 0x4
	.align	2
.LEFDE122:
.LSFDE124:
	.4byte	.LEFDE124-.LASFDE124
.LASFDE124:
	.4byte	.Lframe0
	.4byte	.LFB238
	.4byte	.LFE238-.LFB238
	.byte	0x4
	.4byte	.LCFI150-.LFB238
	.byte	0xe
	.uleb128 0x4
	.byte	0x8e
	.uleb128 0x1
	.byte	0x4
	.4byte	.LCFI151-.LCFI150
	.byte	0xe
	.uleb128 0x18
	.byte	0x4
	.4byte	.LCFI152-.LCFI151
	.byte	0xe
	.uleb128 0x4
	.align	2
.LEFDE124:
.LSFDE126:
	.4byte	.LEFDE126-.LASFDE126
.LASFDE126:
	.4byte	.Lframe0
	.4byte	.LFB239
	.4byte	.LFE239-.LFB239
	.byte	0x4
	.4byte	.LCFI153-.LFB239
	.byte	0xe
	.uleb128 0x4
	.byte	0x8e
	.uleb128 0x1
	.byte	0x4
	.4byte	.LCFI154-.LCFI153
	.byte	0xe
	.uleb128 0x18
	.byte	0x4
	.4byte	.LCFI155-.LCFI154
	.byte	0xe
	.uleb128 0x4
	.align	2
.LEFDE126:
.LSFDE128:
	.4byte	.LEFDE128-.LASFDE128
.LASFDE128:
	.4byte	.Lframe0
	.4byte	.LFB240
	.4byte	.LFE240-.LFB240
	.byte	0x4
	.4byte	.LCFI156-.LFB240
	.byte	0xe
	.uleb128 0x4
	.byte	0x8e
	.uleb128 0x1
	.byte	0x4
	.4byte	.LCFI157-.LCFI156
	.byte	0xe
	.uleb128 0x18
	.byte	0x4
	.4byte	.LCFI158-.LCFI157
	.byte	0xe
	.uleb128 0x4
	.align	2
.LEFDE128:
.LSFDE130:
	.4byte	.LEFDE130-.LASFDE130
.LASFDE130:
	.4byte	.Lframe0
	.4byte	.LFB241
	.4byte	.LFE241-.LFB241
	.byte	0x4
	.4byte	.LCFI159-.LFB241
	.byte	0xe
	.uleb128 0x4
	.byte	0x8e
	.uleb128 0x1
	.byte	0x4
	.4byte	.LCFI160-.LCFI159
	.byte	0xe
	.uleb128 0x20
	.byte	0x4
	.4byte	.LCFI161-.LCFI160
	.byte	0xe
	.uleb128 0x4
	.align	2
.LEFDE130:
.LSFDE132:
	.4byte	.LEFDE132-.LASFDE132
.LASFDE132:
	.4byte	.Lframe0
	.4byte	.LFB242
	.4byte	.LFE242-.LFB242
	.byte	0x4
	.4byte	.LCFI162-.LFB242
	.byte	0xe
	.uleb128 0x4
	.byte	0x8e
	.uleb128 0x1
	.byte	0x4
	.4byte	.LCFI163-.LCFI162
	.byte	0xe
	.uleb128 0x28
	.byte	0x4
	.4byte	.LCFI164-.LCFI163
	.byte	0xe
	.uleb128 0x4
	.align	2
.LEFDE132:
.LSFDE134:
	.4byte	.LEFDE134-.LASFDE134
.LASFDE134:
	.4byte	.Lframe0
	.4byte	.LFB243
	.4byte	.LFE243-.LFB243
	.byte	0x4
	.4byte	.LCFI165-.LFB243
	.byte	0xe
	.uleb128 0x4
	.byte	0x8e
	.uleb128 0x1
	.byte	0x4
	.4byte	.LCFI166-.LCFI165
	.byte	0xe
	.uleb128 0x18
	.byte	0x4
	.4byte	.LCFI167-.LCFI166
	.byte	0xe
	.uleb128 0x4
	.align	2
.LEFDE134:
.LSFDE136:
	.4byte	.LEFDE136-.LASFDE136
.LASFDE136:
	.4byte	.Lframe0
	.4byte	.LFB244
	.4byte	.LFE244-.LFB244
	.byte	0x4
	.4byte	.LCFI168-.LFB244
	.byte	0xe
	.uleb128 0x4
	.byte	0x8e
	.uleb128 0x1
	.byte	0x4
	.4byte	.LCFI169-.LCFI168
	.byte	0xe
	.uleb128 0x10
	.byte	0x4
	.4byte	.LCFI170-.LCFI169
	.byte	0xe
	.uleb128 0x4
	.align	2
.LEFDE136:
.LSFDE138:
	.4byte	.LEFDE138-.LASFDE138
.LASFDE138:
	.4byte	.Lframe0
	.4byte	.LFB245
	.4byte	.LFE245-.LFB245
	.byte	0x4
	.4byte	.LCFI171-.LFB245
	.byte	0xe
	.uleb128 0x4
	.byte	0x8e
	.uleb128 0x1
	.byte	0x4
	.4byte	.LCFI172-.LCFI171
	.byte	0xe
	.uleb128 0x10
	.byte	0x4
	.4byte	.LCFI173-.LCFI172
	.byte	0xe
	.uleb128 0x4
	.align	2
.LEFDE138:
.LSFDE140:
	.4byte	.LEFDE140-.LASFDE140
.LASFDE140:
	.4byte	.Lframe0
	.4byte	.LFB246
	.4byte	.LFE246-.LFB246
	.byte	0x4
	.4byte	.LCFI174-.LFB246
	.byte	0xe
	.uleb128 0x4
	.byte	0x8e
	.uleb128 0x1
	.byte	0x4
	.4byte	.LCFI175-.LCFI174
	.byte	0xe
	.uleb128 0x18
	.byte	0x4
	.4byte	.LCFI176-.LCFI175
	.byte	0xe
	.uleb128 0x4
	.align	2
.LEFDE140:
.LSFDE142:
	.4byte	.LEFDE142-.LASFDE142
.LASFDE142:
	.4byte	.Lframe0
	.4byte	.LFB247
	.4byte	.LFE247-.LFB247
	.byte	0x4
	.4byte	.LCFI177-.LFB247
	.byte	0xe
	.uleb128 0x4
	.byte	0x8e
	.uleb128 0x1
	.byte	0x4
	.4byte	.LCFI178-.LCFI177
	.byte	0xe
	.uleb128 0x58
	.byte	0x4
	.4byte	.LCFI179-.LCFI178
	.byte	0xe
	.uleb128 0x4
	.align	2
.LEFDE142:
	.text
.Letext0:
	.file 5 "/Applications/SEGGER Embedded Studio for ARM 5.62/include/stdint.h"
	.file 6 "../../../nRF5_SDK_14.2.0/components/libraries/util/sdk_errors.h"
	.file 7 "../../../nRF5_SDK_14.2.0/components/device/nrf52.h"
	.file 8 "/Users/arthurbabu/Desktop/SD9/mini_projet/dwm1001-examples/nRF5_SDK_14.2.0/components/drivers_nrf/gpiote/nrf_drv_gpiote.h"
	.file 9 "../../../nRF5_SDK_14.2.0/components/drivers_nrf/common/nrf_drv_common.h"