	.cpu cortex-m4
	.eabi_attribute 27, 1
	.eabi_attribute 28, 1
	.eabi_attribute 20, 1
	.eabi_attribute 21, 1
	.eabi_attribute 23, 3
	.eabi_attribute 24, 1
	.eabi_attribute 25, 1
	.eabi_attribute 26, 1
	.eabi_attribute 30, 6
	.eabi_attribute 34, 1
	.eabi_attribute 18, 4
	.file	"nrf_drv_common.c"
	.text
.Ltext0:
	.section	.text.__NVIC_EnableIRQ,"ax",%progbits
	.align	1
	.syntax unified
	.thumb
	.thumb_func
	.fpu fpv4-sp-d16
	.type	__NVIC_EnableIRQ, %function
__NVIC_EnableIRQ:
.LFB107:
	.file 1 "/Users/arthurbabu/Library/SEGGER/SEGGER Embedded Studio/v3/packages/CMSIS_5/CMSIS/Core/Include/core_cm4.h"
	.loc 1 1685 1
	@ args = 0, pretend = 0, frame = 8
	@ frame_needed = 0, uses_anonymous_args = 0
	@ link register save eliminated.
	sub	sp, sp, #8
.LCFI0:
	mov	r3, r0
	strb	r3, [sp, #7]
	.loc 1 1686 6
	ldrsb	r3, [sp, #7]
	cmp	r3, #0
	blt	.L3
	.loc 1 1688 5
	.loc 1 1689 81
	ldrb	r3, [sp, #7]	@ zero_extendqisi2
	and	r2, r3, #31
	.loc 1 1689 9
	ldr	r1, .L4
	.loc 1 1689 18
	ldrsb	r3, [sp, #7]
	.loc 1 1689 34
	lsrs	r3, r3, #5
	.loc 1 1689 60
	movs	r0, #1
	lsl	r2, r0, r2
	.loc 1 1689 43
	str	r2, [r1, r3, lsl #2]
	.loc 1 1690 5
.L3:
	.loc 1 1692 1
	nop
	add	sp, sp, #8
.LCFI1:
	@ sp needed
	bx	lr
.L5:
	.align	2
.L4:
	.word	-536813312
.LFE107:
	.size	__NVIC_EnableIRQ, .-__NVIC_EnableIRQ
	.section	.text.__NVIC_DisableIRQ,"ax",%progbits
	.align	1
	.syntax unified
	.thumb
	.thumb_func
	.fpu fpv4-sp-d16
	.type	__NVIC_DisableIRQ, %function
__NVIC_DisableIRQ:
.LFB109:
	.loc 1 1723 1
	@ args = 0, pretend = 0, frame = 8
	@ frame_needed = 0, uses_anonymous_args = 0
	@ link register save eliminated.
	sub	sp, sp, #8
.LCFI2:
	mov	r3, r0
	strb	r3, [sp, #7]
	.loc 1 1724 6
	ldrsb	r3, [sp, #7]
	cmp	r3, #0
	blt	.L8
	.loc 1 1726 81
	ldrb	r3, [sp, #7]	@ zero_extendqisi2
	and	r2, r3, #31
	.loc 1 1726 9
	ldr	r1, .L9
	.loc 1 1726 18
	ldrsb	r3, [sp, #7]
	.loc 1 1726 34
	lsrs	r3, r3, #5
	.loc 1 1726 60
	movs	r0, #1
	lsl	r2, r0, r2
	.loc 1 1726 43
	adds	r3, r3, #32
	str	r2, [r1, r3, lsl #2]
.LBB6:
.LBB7:
	.file 2 "/Users/arthurbabu/Library/SEGGER/SEGGER Embedded Studio/v3/packages/CMSIS_5/CMSIS/Core/Include/cmsis_gcc.h"
	.loc 2 946 3
	.syntax unified
@ 946 "/Users/arthurbabu/Library/SEGGER/SEGGER Embedded Studio/v3/packages/CMSIS_5/CMSIS/Core/Include/cmsis_gcc.h" 1
	dsb 0xF
@ 0 "" 2
	.loc 2 947 1
	.thumb
	.syntax unified
	nop
.LBE7:
.LBE6:
.LBB8:
.LBB9:
	.loc 2 935 3
	.syntax unified
@ 935 "/Users/arthurbabu/Library/SEGGER/SEGGER Embedded Studio/v3/packages/CMSIS_5/CMSIS/Core/Include/cmsis_gcc.h" 1
	isb 0xF
@ 0 "" 2
	.loc 2 936 1
	.thumb
	.syntax unified
	nop
.L8:
.LBE9:
.LBE8:
	.loc 1 1730 1
	nop
	add	sp, sp, #8
.LCFI3:
	@ sp needed
	bx	lr
.L10:
	.align	2
.L9:
	.word	-536813312
.LFE109:
	.size	__NVIC_DisableIRQ, .-__NVIC_DisableIRQ
	.section	.text.__NVIC_ClearPendingIRQ,"ax",%progbits
	.align	1
	.syntax unified
	.thumb
	.thumb_func
	.fpu fpv4-sp-d16
	.type	__NVIC_ClearPendingIRQ, %function
__NVIC_ClearPendingIRQ:
.LFB112:
	.loc 1 1776 1
	@ args = 0, pretend = 0, frame = 8
	@ frame_needed = 0, uses_anonymous_args = 0
	@ link register save eliminated.
	sub	sp, sp, #8
.LCFI4:
	mov	r3, r0
	strb	r3, [sp, #7]
	.loc 1 1777 6
	ldrsb	r3, [sp, #7]
	cmp	r3, #0
	blt	.L13
	.loc 1 1779 81
	ldrb	r3, [sp, #7]	@ zero_extendqisi2
	and	r2, r3, #31
	.loc 1 1779 9
	ldr	r1, .L14
	.loc 1 1779 18
	ldrsb	r3, [sp, #7]
	.loc 1 1779 34
	lsrs	r3, r3, #5
	.loc 1 1779 60
	movs	r0, #1
	lsl	r2, r0, r2
	.loc 1 1779 43
	adds	r3, r3, #96
	str	r2, [r1, r3, lsl #2]
.L13:
	.loc 1 1781 1
	nop
	add	sp, sp, #8
.LCFI5:
	@ sp needed
	bx	lr
.L15:
	.align	2
.L14:
	.word	-536813312
.LFE112:
	.size	__NVIC_ClearPendingIRQ, .-__NVIC_ClearPendingIRQ
	.section	.text.__NVIC_SetPriority,"ax",%progbits
	.align	1
	.syntax unified
	.thumb
	.thumb_func
	.fpu fpv4-sp-d16
	.type	__NVIC_SetPriority, %function
__NVIC_SetPriority:
.LFB114:
	.loc 1 1815 1
	@ args = 0, pretend = 0, frame = 8
	@ frame_needed = 0, uses_anonymous_args = 0
	@ link register save eliminated.
	sub	sp, sp, #8
.LCFI6:
	mov	r3, r0
	str	r1, [sp]
	strb	r3, [sp, #7]
	.loc 1 1816 6
	ldrsb	r3, [sp, #7]
	cmp	r3, #0
	blt	.L17
	.loc 1 1818 48
	ldr	r3, [sp]
	uxtb	r2, r3
	.loc 1 1818 9
	ldr	r1, .L20
	.loc 1 1818 15
	ldrsb	r3, [sp, #7]
	.loc 1 1818 48
	lsls	r2, r2, #5
	uxtb	r2, r2
	.loc 1 1818 46
	add	r3, r3, r1
	strb	r2, [r3, #768]
	.loc 1 1824 1
	b	.L19
.L17:
	.loc 1 1822 48
	ldr	r3, [sp]
	uxtb	r2, r3
	.loc 1 1822 8
	ldr	r1, .L20+4
	.loc 1 1822 32
	ldrb	r3, [sp, #7]	@ zero_extendqisi2
	and	r3, r3, #15
	.loc 1 1822 40
	subs	r3, r3, #4
	.loc 1 1822 48
	lsls	r2, r2, #5
	uxtb	r2, r2
	.loc 1 1822 46
	add	r3, r3, r1
	strb	r2, [r3, #24]
.L19:
	.loc 1 1824 1
	nop
	add	sp, sp, #8
.LCFI7:
	@ sp needed
	bx	lr
.L21:
	.align	2
.L20:
	.word	-536813312
	.word	-536810240
.LFE114:
	.size	__NVIC_SetPriority, .-__NVIC_SetPriority
	.section	.text.nrf_drv_common_irq_disable,"ax",%progbits
	.align	1
	.syntax unified
	.thumb
	.thumb_func
	.fpu fpv4-sp-d16
	.type	nrf_drv_common_irq_disable, %function
nrf_drv_common_irq_disable:
.LFB151:
	.file 3 "/Users/arthurbabu/Desktop/SD9/mini_projet/dwm1001-examples/nRF5_SDK_14.2.0/components/drivers_nrf/common/nrf_drv_common.h"
	.loc 3 302 1
	@ args = 0, pretend = 0, frame = 8
	@ frame_needed = 0, uses_anonymous_args = 0
	push	{lr}
.LCFI8:
	sub	sp, sp, #12
.LCFI9:
	mov	r3, r0
	strb	r3, [sp, #7]
	.loc 3 303 5
	ldrsb	r3, [sp, #7]
	mov	r0, r3
	bl	__NVIC_DisableIRQ
	.loc 3 304 1
	nop
	add	sp, sp, #12
.LCFI10:
	@ sp needed
	ldr	pc, [sp], #4
.LFE151:
	.size	nrf_drv_common_irq_disable, .-nrf_drv_common_irq_disable
	.section	.text.nrf_drv_common_clock_irq_disable,"ax",%progbits
	.align	1
	.global	nrf_drv_common_clock_irq_disable
	.syntax unified
	.thumb
	.thumb_func
	.fpu fpv4-sp-d16
	.type	nrf_drv_common_clock_irq_disable, %function
nrf_drv_common_clock_irq_disable:
.LFB157:
	.file 4 "/Users/arthurbabu/Desktop/SD9/mini_projet/dwm1001-examples/nRF5_SDK_14.2.0/components/drivers_nrf/common/nrf_drv_common.c"
	.loc 4 268 1
	@ args = 0, pretend = 0, frame = 0
	@ frame_needed = 0, uses_anonymous_args = 0
	push	{r3, lr}
.LCFI11:
	.loc 4 273 9
	movs	r0, #0
	bl	nrf_drv_common_irq_disable
	.loc 4 275 1
	nop
	pop	{r3, pc}
.LFE157:
	.size	nrf_drv_common_clock_irq_disable, .-nrf_drv_common_clock_irq_disable
	.section	.text.nrf_drv_common_irq_enable,"ax",%progbits
	.align	1
	.global	nrf_drv_common_irq_enable
	.syntax unified
	.thumb
	.thumb_func
	.fpu fpv4-sp-d16
	.type	nrf_drv_common_irq_enable, %function
nrf_drv_common_irq_enable:
.LFB158:
	.loc 4 291 1
	@ args = 0, pretend = 0, frame = 8
	@ frame_needed = 0, uses_anonymous_args = 0
	push	{lr}
.LCFI12:
	sub	sp, sp, #12
.LCFI13:
	mov	r3, r0
	mov	r2, r1
	strb	r3, [sp, #7]
	mov	r3, r2
	strb	r3, [sp, #6]
	.loc 4 294 5
	ldrb	r2, [sp, #6]	@ zero_extendqisi2
	ldrsb	r3, [sp, #7]
	mov	r1, r2
	mov	r0, r3
	bl	__NVIC_SetPriority
	.loc 4 295 5
	ldrsb	r3, [sp, #7]
	mov	r0, r3
	bl	__NVIC_ClearPendingIRQ
	.loc 4 296 5
	ldrsb	r3, [sp, #7]
	mov	r0, r3
	bl	__NVIC_EnableIRQ
	.loc 4 297 1
	nop
	add	sp, sp, #12
.LCFI14:
	@ sp needed
	ldr	pc, [sp], #4
.LFE158:
	.size	nrf_drv_common_irq_enable, .-nrf_drv_common_irq_enable
	.section	.debug_frame,"",%progbits
.Lframe0:
	.4byte	.LECIE0-.LSCIE0
.LSCIE0:
	.4byte	0xffffffff
	.byte	0x3
	.ascii	"\000"
	.uleb128 0x1
	.sleb128 -4
	.uleb128 0xe
	.byte	0xc
	.uleb128 0xd
	.uleb128 0
	.align	2
.LECIE0:
.LSFDE0:
	.4byte	.LEFDE0-.LASFDE0
.LASFDE0:
	.4byte	.Lframe0
	.4byte	.LFB107
	.4byte	.LFE107-.LFB107
	.byte	0x4
	.4byte	.LCFI0-.LFB107
	.byte	0xe
	.uleb128 0x8
	.byte	0x4
	.4byte	.LCFI1-.LCFI0
	.byte	0xe
	.uleb128 0
	.align	2
.LEFDE0:
.LSFDE2:
	.4byte	.LEFDE2-.LASFDE2
.LASFDE2:
	.4byte	.Lframe0
	.4byte	.LFB109
	.4byte	.LFE109-.LFB109
	.byte	0x4
	.4byte	.LCFI2-.LFB109
	.byte	0xe
	.uleb128 0x8
	.byte	0x4
	.4byte	.LCFI3-.LCFI2
	.byte	0xe
	.uleb128 0
	.align	2
.LEFDE2:
.LSFDE4:
	.4byte	.LEFDE4-.LASFDE4
.LASFDE4:
	.4byte	.Lframe0
	.4byte	.LFB112
	.4byte	.LFE112-.LFB112
	.byte	0x4
	.4byte	.LCFI4-.LFB112
	.byte	0xe
	.uleb128 0x8
	.byte	0x4
	.4byte	.LCFI5-.LCFI4
	.byte	0xe
	.uleb128 0
	.align	2
.LEFDE4:
.LSFDE6:
	.4byte	.LEFDE6-.LASFDE6
.LASFDE6:
	.4byte	.Lframe0
	.4byte	.LFB114
	.4byte	.LFE114-.LFB114
	.byte	0x4
	.4byte	.LCFI6-.LFB114
	.byte	0xe
	.uleb128 0x8
	.byte	0x4
	.4byte	.LCFI7-.LCFI6
	.byte	0xe
	.uleb128 0
	.align	2
.LEFDE6:
.LSFDE8:
	.4byte	.LEFDE8-.LASFDE8
.LASFDE8:
	.4byte	.Lframe0
	.4byte	.LFB151
	.4byte	.LFE151-.LFB151
	.byte	0x4
	.4byte	.LCFI8-.LFB151
	.byte	0xe
	.uleb128 0x4
	.byte	0x8e
	.uleb128 0x1
	.byte	0x4
	.4byte	.LCFI9-.LCFI8
	.byte	0xe
	.uleb128 0x10
	.byte	0x4
	.4byte	.LCFI10-.LCFI9
	.byte	0xe
	.uleb128 0x4
	.align	2
.LEFDE8:
.LSFDE10:
	.4byte	.LEFDE10-.LASFDE10
.LASFDE10:
	.4byte	.Lframe0
	.4byte	.LFB157
	.4byte	.LFE157-.LFB157
	.byte	0x4
	.4byte	.LCFI11-.LFB157
	.byte	0xe
	.uleb128 0x8
	.byte	0x83
	.uleb128 0x2
	.byte	0x8e
	.uleb128 0x1
	.align	2
.LEFDE10:
.LSFDE12:
	.4byte	.LEFDE12-.LASFDE12
.LASFDE12:
	.4byte	.Lframe0
	.4byte	.LFB158
	.4byte	.LFE158-.LFB158
	.byte	0x4
	.4byte	.LCFI12-.LFB158
	.byte	0xe
	.uleb128 0x4
	.byte	0x8e
	.uleb128 0x1
	.byte	0x4
	.4byte	.LCFI13-.LCFI12
	.byte	0xe
	.uleb128 0x10
	.byte	0x4
	.4byte	.LCFI14-.LCFI13
	.byte	0xe
	.uleb128 0x4
	.align	2
.LEFDE12:
	.text
.Letext0:
	.file 5 "/Applications/SEGGER Embedded Studio for ARM 5.62/include/stdint.h"
	.file 6 "../../../nRF5_SDK_14.2.0/components/device/nrf52.h"